(dp0
cdatetime
datetime
p1
(S'\x07\xda\n\n\x0e*\x01\x00\x00\x00'
p2
tp3
Rp4
(dp5
S'upgrade'
p6
I0
sS'remove'
p7
I0
sS'purge'
p8
I0
sS'action'
p9
I0
sS'install'
p10
I124
sS'downgrade'
p11
I0
ssg1
(S'\x07\xda\x0c\x08\x0b \x1c\x00\x00\x00'
p12
tp13
Rp14
(dp15
g6
I14
sg7
I0
sg8
I0
sg9
I0
sg10
I0
sg11
I0
ssg1
(S'\x07\xda\n\x07\x10\x10\x15\x00\x00\x00'
p16
tp17
Rp18
(dp19
g6
I0
sg7
I0
sg8
I3
sg9
S'apt-get -y --purge remove linux-headers-2.6.35-22 linux-headers-2.6.35-22-generic linux-headers-generic'
p20
sg10
I0
sg11
I0
ssg1
(S'\x07\xda\x0c\x0c\x0e\x01*\x00\x00\x00'
p21
tp22
Rp23
(dp24
g6
I0
sg7
I0
sg8
I0
sg9
S'apt-get install php5'
p25
sg10
I19
sg11
I0
ssg1
(S'\x07\xda\x0b\x0b\x15\x068\x00\x00\x00'
p26
tp27
Rp28
(dp29
g6
I10
sg7
I0
sg8
I0
sg9
S'apt-get upgrade'
p30
sg10
I0
sg11
I0
ssg1
(S'\x07\xda\n\x1d\x13(\x1e\x00\x00\x00'
p31
tp32
Rp33
(dp34
g6
I2
sg7
I0
sg8
I0
sg9
I0
sg10
I0
sg11
I0
ssg1
(S'\x07\xda\n\x0b\x14$\x0b\x00\x00\x00'
p35
tp36
Rp37
(dp38
g6
I0
sg7
I0
sg8
I0
sg9
S'apt-get install subversion'
p39
sg10
I7
sg11
I0
ssg1
(S'\x07\xda\x0c\x0e\x0b\x1a\x00\x00\x00\x00'
p40
tp41
Rp42
(dp43
g6
I10
sg7
I0
sg8
I0
sg9
I0
sg10
I0
sg11
I0
ssg1
(S'\x07\xda\n\n\x0e-#\x00\x00\x00'
p44
tp45
Rp46
(dp47
g6
I0
sg7
I0
sg8
I0
sg9
I0
sg10
I0
sg11
I0
ssg1
(S'\x07\xda\n\n\x0e&\r\x00\x00\x00'
p48
tp49
Rp50
(dp51
g6
I0
sg7
I0
sg8
I0
sg9
I0
sg10
I11
sg11
I0
ssg1
(S'\x07\xda\x0b\x06\x0e0\x11\x00\x00\x00'
p52
tp53
Rp54
(dp55
g6
I86
sg7
I0
sg8
I0
sg9
S'apt-get upgrade'
p56
sg10
I0
sg11
I0
ssg1
(S'\x07\xda\n\x1a\x15\x07\x17\x00\x00\x00'
p57
tp58
Rp59
(dp60
g6
I0
sg7
I0
sg8
I0
sg9
S'apt-get install python-virtualenv python-pip'
p61
sg10
I4
sg11
I0
ssg1
(S'\x07\xda\n\x1f\x12:-\x00\x00\x00'
p62
tp63
Rp64
(dp65
g6
I4
sg7
I0
sg8
I0
sg9
S'apt-get upgrade'
p66
sg10
I0
sg11
I0
ssg1
(S'\x07\xda\x0b\x12\x12\x16 \x00\x00\x00'
p67
tp68
Rp69
(dp70
g6
I72
sg7
I0
sg8
I0
sg9
S'apt-get upgrade'
p71
sg10
I0
sg11
I0
ssg1
(S'\x07\xda\x0b\x1c\x17+\x01\x00\x00\x00'
p72
tp73
Rp74
(dp75
g6
I8
sg7
I0
sg8
I0
sg9
I0
sg10
I4
sg11
I0
ssg1
(S'\x07\xda\x0b\x1c\n\x07\x1b\x00\x00\x00'
p76
tp77
Rp78
(dp79
g6
I14
sg7
I0
sg8
I0
sg9
S'apt-get upgrade'
p80
sg10
I0
sg11
I0
ssg1
(S'\x07\xda\n\x07\x0f:5\x00\x00\x00'
p81
tp82
Rp83
(dp84
g6
I2
sg7
I0
sg8
I0
sg9
S'apt-get -y --purge dist-upgrade'
p85
sg10
I0
sg11
I0
ssg1
(S'\x07\xda\x0c\n\x1386\x00\x00\x00'
p86
tp87
Rp88
(dp89
g6
I8
sg7
I0
sg8
I0
sg9
S'apt-get upgrade'
p90
sg10
I0
sg11
I0
ssg1
(S'\x07\xda\n\x12\x14"9\x00\x00\x00'
p91
tp92
Rp93
(dp94
g6
I34
sg7
I0
sg8
I0
sg9
S'apt-get upgrade'
p95
sg10
I0
sg11
I0
ssg1
(S'\x07\xda\x0c\x10\x10\x0f\x1f\x00\x00\x00'
p96
tp97
Rp98
(dp99
g6
I4
sg7
I0
sg8
I0
sg9
S'apt-get upgrade'
p100
sg10
I0
sg11
I0
ssg1
(S'\x07\xda\x0c\x05\x11"4\x00\x00\x00'
p101
tp102
Rp103
(dp104
g6
I0
sg7
I0
sg8
I0
sg9
S'apt-get install nmap'
p105
sg10
I1
sg11
I0
ssg1
(S'\x07\xda\n\x1a\x15\x08\x1c\x00\x00\x00'
p106
tp107
Rp108
(dp109
g6
I0
sg7
I0
sg8
I0
sg9
S'apt-get install python-nose'
p110
sg10
I1
sg11
I0
ssg1
(S'\x07\xda\x0c\n\x0b\x1d\x08\x00\x00\x00'
p111
tp112
Rp113
(dp114
g6
I8
sg7
I0
sg8
I0
sg9
I0
sg10
I0
sg11
I0
ssg1
(S'\x07\xda\n\x07\x10\x10\x17\x00\x00\x00'
p115
tp116
Rp117
(dp118
g6
I0
sg7
I0
sg8
I0
sg9
S'apt-get -y --purge install linux-headers-generic'
p119
sg10
I5
sg11
I0
ssg1
(S'\x07\xda\x0b\x15\x11%)\x00\x00\x00'
p120
tp121
Rp122
(dp123
g6
I8
sg7
I0
sg8
I0
sg9
S'apt-get upgrade'
p124
sg10
I0
sg11
I0
ssg1
(S'\x07\xda\x0c\t\r3\x10\x00\x00\x00'
p125
tp126
Rp127
(dp128
g6
I18
sg7
I0
sg8
I0
sg9
S'apt-get upgrade'
p129
sg10
I0
sg11
I0
ssg1
(S'\x07\xda\x0c\n\x14\x03+\x00\x00\x00'
p130
tp131
Rp132
(dp133
g6
I0
sg7
I0
sg8
I0
sg9
I0
sg10
I2
sg11
I0
ssg1
(S'\x07\xda\x0c\r\x10;\x12\x00\x00\x00'
p134
tp135
Rp136
(dp137
g6
I12
sg7
I0
sg8
I0
sg9
S'apt-get upgrade'
p138
sg10
I0
sg11
I0
ssg1
(S'\x07\xda\x0c\x05\x10\x16\x04\x00\x00\x00'
p139
tp140
Rp141
(dp142
g6
I86
sg7
I0
sg8
I0
sg9
S'apt-get upgrade'
p143
sg10
I0
sg11
I0
ssg1
(S'\x07\xda\x0c\x14\x14"&\x00\x00\x00'
p144
tp145
Rp146
(dp147
g6
I6
sg7
I0
sg8
I0
sg9
S'apt-get upgrade'
p148
sg10
I0
sg11
I0
ssg1
(S'\x07\xda\n\x12\x14,\x0b\x00\x00\x00'
p149
tp150
Rp151
(dp152
g6
I0
sg7
I0
sg8
I0
sg9
S'apt-get install gftp'
p153
sg10
I7
sg11
I0
ssg1
(S'\x07\xda\n\x19\x12\x072\x00\x00\x00'
p154
tp155
Rp156
(dp157
g6
I6
sg7
I0
sg8
I0
sg9
S'apt-get upgrade'
p158
sg10
I0
sg11
I0
ssg1
(S'\x07\xda\n\x0e\x12\x16#\x00\x00\x00'
p159
tp160
Rp161
(dp162
g6
I18
sg7
I0
sg8
I0
sg9
S'apt-get upgrade'
p163
sg10
I0
sg11
I0
ssg1
(S'\x07\xda\n\n\x15\x17#\x00\x00\x00'
p164
tp165
Rp166
(dp167
g6
I0
sg7
I0
sg8
I0
sg9
S'apt-get install gnome-do'
p168
sg10
I39
sg11
I0
ssg1
(S'\x07\xda\n\x16\x14(%\x00\x00\x00'
p169
tp170
Rp171
(dp172
g6
I106
sg7
I0
sg8
I0
sg9
I0
sg10
I1
sg11
I0
ssg1
(S'\x07\xda\n\x0c\x12*\x08\x00\x00\x00'
p173
tp174
Rp175
(dp176
g6
I0
sg7
I0
sg8
I0
sg9
S'apt-get install python-pygame'
p177
sg10
I21
sg11
I0
ssg1
(S'\x07\xda\x0b\r\x047)\x00\x00\x00'
p178
tp179
Rp180
(dp181
g6
I0
sg7
I0
sg8
I0
sg9
S'apt-get install vlc'
p182
sg10
I51
sg11
I0
ssg1
(S'\x07\xda\n\n\x0e9\x1a\x00\x00\x00'
p183
tp184
Rp185
(dp186
g6
I4
sg7
I0
sg8
I0
sg9
S'apt-get upgrade'
p187
sg10
I0
sg11
I0
ssg1
(S'\x07\xda\n\x1c\x12\x0f\x1a\x00\x00\x00'
p188
tp189
Rp190
(dp191
g6
I70
sg7
I0
sg8
I0
sg9
I0
sg10
I0
sg11
I0
ssg1
(S'\x07\xda\x0c\x1b\x0b\x07/\x00\x00\x00'
p192
tp193
Rp194
(dp195
g6
I6
sg7
I0
sg8
I0
sg9
S'apt-get upgrade'
p196
sg10
I0
sg11
I0
ssg1
(S'\x07\xda\n\x07\x0f;1\x00\x00\x00'
p197
tp198
Rp199
(dp200
g6
I0
sg7
I0
sg8
I0
sg9
S'apt-get -y --purge install minimal^ standard^ ubuntu-desktop^ linux-generic'
p201
sg10
I1130
sg11
I0
ssg1
(S'\x07\xda\n\x07\x10\x10.\x00\x00\x00'
p202
tp203
Rp204
(dp205
g6
I0
sg7
I0
sg8
I0
sg9
S'apt-get -y --purge install ubuntu-live^ laptop-detect casper lupin-casper'
p206
sg10
I63
sg11
I0
ssg1
(S'\x07\xda\n\n\x0e25\x00\x00\x00'
p207
tp208
Rp209
(dp210
g6
I0
sg7
I0
sg8
I0
sg9
I0
sg10
I3
sg11
I0
ssg1
(S"\x07\xda\n\n\x0e'3\x00\x00\x00"
p211
tp212
Rp213
(dp214
g6
I0
sg7
I0
sg8
I0
sg9
I0
sg10
I7
sg11
I0
ssg1
(S'\x07\xda\n\n\x0e,\x03\x00\x00\x00'
p215
tp216
Rp217
(dp218
g6
I0
sg7
I0
sg8
I49
sg9
I0
sg10
I0
sg11
I0
ss.