(dp0
cdatetime
datetime
p1
(S'\x07\xda\x0b\x0b\x0c\x08\t\x00\x00\x00'
p2
tp3
Rp4
(dp5
S'upgrade'
p6
I0
sS'remove'
p7
I0
sS'purge'
p8
I0
sS'action'
p9
I0
sS'install'
p10
I5
sS'downgrade'
p11
I0
ssg1
(S'\x07\xda\x0c\x07\x10\x0c9\x00\x00\x00'
p12
tp13
Rp14
(dp15
g6
I0
sg7
I0
sg8
I0
sg9
I0
sg10
I25
sg11
I0
ssg1
(S'\x07\xda\x0c\x10\r\x02"\x00\x00\x00'
p16
tp17
Rp18
(dp19
g6
I0
sg7
I0
sg8
I0
sg9
I0
sg10
I21
sg11
I0
ssg1
(S'\x07\xda\x0b\x1a\x0e\x01\r\x00\x00\x00'
p20
tp21
Rp22
(dp23
g6
I0
sg7
I0
sg8
I0
sg9
S'/usr/sbin/synaptic'
p24
sg10
I42
sg11
I0
ssg1
(S'\x07\xda\x0b\x08\x0c%\t\x00\x00\x00'
p25
tp26
Rp27
(dp28
g6
I0
sg7
I0
sg8
I37
sg9
I0
sg10
I0
sg11
I0
ssg1
(S'\x07\xda\x0c\x16\n\x18&\x00\x00\x00'
p29
tp30
Rp31
(dp32
g6
I0
sg7
I0
sg8
I0
sg9
S'apt-get install ubuntu-desktop alsa-base'
p33
sg10
I9
sg11
I0
ssg1
(S'\x07\xda\x0b\x13\n4\x1f\x00\x00\x00'
p34
tp35
Rp36
(dp37
g6
I0
sg7
I0
sg8
I0
sg9
S'/usr/sbin/synaptic'
p38
sg10
I48
sg11
I0
ssg1
(S'\x07\xda\x0b\x1d\x0e;#\x00\x00\x00'
p39
tp40
Rp41
(dp42
g6
I0
sg7
I0
sg8
I0
sg9
S'/usr/sbin/synaptic'
p43
sg10
I1
sg11
I0
ssg1
(S'\x07\xda\x0b\x13\x0c\x17"\x00\x00\x00'
p44
tp45
Rp46
(dp47
g6
I0
sg7
I0
sg8
I0
sg9
S'/usr/sbin/synaptic'
p48
sg10
I27
sg11
I0
ssg1
(S'\x07\xda\x0c\x10\r\x1a\x1c\x00\x00\x00'
p49
tp50
Rp51
(dp52
g6
I0
sg7
I0
sg8
I0
sg9
S'apt-get install unrar'
p53
sg10
I1
sg11
I0
ssg1
(S'\x07\xda\x0b\x19\x11 1\x00\x00\x00'
p54
tp55
Rp56
(dp57
g6
I0
sg7
I0
sg8
I0
sg9
S'apt-get install scrot'
p58
sg10
I5
sg11
I0
ssg1
(S'\x07\xda\x0c\x01\x0c8\x1a\x00\x00\x00'
p59
tp60
Rp61
(dp62
g6
I0
sg7
I0
sg8
I0
sg9
S'apt-get install synapse'
p63
sg10
I3
sg11
I0
ssg1
(S'\x07\xda\x0b\x19\x0b\x02.\x00\x00\x00'
p64
tp65
Rp66
(dp67
g6
I112
sg7
I0
sg8
I0
sg9
I0
sg10
I4
sg11
I0
ssg1
(S'\x07\xda\x0b\n\n\x1f&\x00\x00\x00'
p68
tp69
Rp70
(dp71
g6
I0
sg7
I0
sg8
I0
sg9
S'apt-get install ibus-anthy'
p72
sg10
I7
sg11
I0
ssg1
(S'\x07\xda\x0b\x19\x11(/\x00\x00\x00'
p73
tp74
Rp75
(dp76
g6
I0
sg7
I0
sg8
I0
sg9
I0
sg10
I13
sg11
I0
ssg1
(S'\x07\xda\x0c\n\n\x15;\x00\x00\x00'
p77
tp78
Rp79
(dp80
g6
I0
sg7
I0
sg8
I0
sg9
I0
sg10
I3
sg11
I0
ssg1
(S'\x07\xda\x0b\n\r/\x03\x00\x00\x00'
p81
tp82
Rp83
(dp84
g6
I0
sg7
I0
sg8
I0
sg9
S'apt-get install chromium'
p85
sg10
I17
sg11
I0
ssg1
(S'\x07\xda\x0c\x16\n\x18\x00\x00\x00\x00'
p86
tp87
Rp88
(dp89
g6
I0
sg7
I0
sg8
I7
sg9
S'apt-get remove --purge pulseaudio'
p90
sg10
I0
sg11
I0
ssg1
(S'\x07\xda\x0c\x0e\n\x06\x1f\x00\x00\x00'
p91
tp92
Rp93
(dp94
g6
I0
sg7
I0
sg8
I0
sg9
S'apt-get install --reinstall ubuntu-desktop'
p95
sg10
I0
sg11
I0
ssg1
(S'\x07\xda\x0b\x08\x0c&\x0b\x00\x00\x00'
p96
tp97
Rp98
(dp99
g6
I0
sg7
I0
sg8
I0
sg9
I0
sg10
I0
sg11
I0
ssg1
(S'\x07\xda\x0c\t\x12\r1\x00\x00\x00'
p100
tp101
Rp102
(dp103
g6
I0
sg7
I0
sg8
I0
sg9
I0
sg10
I57
sg11
I0
ssg1
(S'\x07\xda\x0c\x08\x0f\x01\x05\x00\x00\x00'
p104
tp105
Rp106
(dp107
g6
I0
sg7
I0
sg8
I0
sg9
S'apt-get install --reinstall ubuntu-desktop'
p108
sg10
I0
sg11
I0
ssg1
(S'\x07\xda\x0c\x08\x0f\x04\x1d\x00\x00\x00'
p109
tp110
Rp111
(dp112
g6
I56
sg7
I0
sg8
I0
sg9
I0
sg10
I0
sg11
I0
ssg1
(S'\x07\xda\x0b\x11\x13)5\x00\x00\x00'
p113
tp114
Rp115
(dp116
g6
I0
sg7
I0
sg8
I0
sg9
S'apt-get install compiz-plugins-livewallpapers'
p117
sg10
I1
sg11
I0
ssg1
(S'\x07\xda\x0b\x1a\x0b\x11+\x00\x00\x00'
p118
tp119
Rp120
(dp121
g6
I0
sg7
I0
sg8
I0
sg9
S'apt-get install --reinstall ubuntu-desktop'
p122
sg10
I0
sg11
I0
ssg1
(S'\x07\xda\x0c\x11\x0b*\x12\x00\x00\x00'
p123
tp124
Rp125
(dp126
g6
I10
sg7
I0
sg8
I0
sg9
I0
sg10
I0
sg11
I0
ssg1
(S'\x07\xda\x0b\x08\r9\x1c\x00\x00\x00'
p127
tp128
Rp129
(dp130
g6
I0
sg7
I0
sg8
I0
sg9
I0
sg10
I125
sg11
I0
ssg1
(S'\x07\xda\x0b\x19\n;1\x00\x00\x00'
p131
tp132
Rp133
(dp134
g6
I0
sg7
I0
sg8
I0
sg9
S'apt-get install --reinstall ubuntu-desktop'
p135
sg10
I0
sg11
I0
ssg1
(S"\x07\xda\x0b\x19\x11)'\x00\x00\x00"
p136
tp137
Rp138
(dp139
g6
I0
sg7
I0
sg8
I0
sg9
S'apt-get install nautilus-image-converter'
p140
sg10
I1
sg11
I0
ssg1
(S'\x07\xda\x0b\x08\r0#\x00\x00\x00'
p141
tp142
Rp143
(dp144
g6
I0
sg7
I0
sg8
I0
sg9
S'apt-get install gnome-do'
p145
sg10
I11
sg11
I0
ssg1
(S'\x07\xda\x0c\n\n\x0c\x07\x00\x00\x00'
p146
tp147
Rp148
(dp149
g6
I0
sg7
I0
sg8
I0
sg9
S'apt-get install --reinstall ubuntu-desktop'
p150
sg10
I0
sg11
I0
ssg1
(S'\x07\xda\x0c\t\x0c0\x1f\x00\x00\x00'
p151
tp152
Rp153
(dp154
g6
I0
sg7
I0
sg8
I0
sg9
S'apt-get install cakephp-scripts'
p155
sg10
I3
sg11
I0
ssg1
(S'\x07\xda\x0b\x1d\x0f\x1d&\x00\x00\x00'
p156
tp157
Rp158
(dp159
g6
I0
sg7
I0
sg8
I0
sg9
S'apt-get install --reinstall ubuntu-desktop'
p160
sg10
I0
sg11
I0
ssg1
(S'\x07\xda\x0b\x08\x0c)\x1b\x00\x00\x00'
p161
tp162
Rp163
(dp164
g6
I0
sg7
I0
sg8
I0
sg9
I0
sg10
I9
sg11
I0
ssg1
(S'\x07\xda\x0b\x19\n:\x11\x00\x00\x00'
p165
tp166
Rp167
(dp168
g6
I0
sg7
I0
sg8
I0
sg9
S'apt-get install --reinstall ubuntu-desktop'
p169
sg10
I0
sg11
I0
ssg1
(S'\x07\xda\x0c\x0e\r\x1d\x15\x00\x00\x00'
p170
tp171
Rp172
(dp173
g6
I0
sg7
I0
sg8
I0
sg9
S'apt-get install dockbarx dockbarx-themes-extra'
p174
sg10
I6
sg11
I0
ssg1
(S'\x07\xda\x0b\x13\x0c\x14&\x00\x00\x00'
p175
tp176
Rp177
(dp178
g6
I0
sg7
I0
sg8
I0
sg9
S'/usr/sbin/synaptic'
p179
sg10
I1
sg11
I0
ssg1
(S'\x07\xda\x0c\x16\n\x13:\x00\x00\x00'
p180
tp181
Rp182
(dp183
g6
I0
sg7
I0
sg8
I0
sg9
S'apt-get install --reinstall ubuntu-desktop'
p184
sg10
I0
sg11
I0
ssg1
(S'\x07\xda\x0b\x08\x0c \x03\x00\x00\x00'
p185
tp186
Rp187
(dp188
g6
I0
sg7
I0
sg8
I0
sg9
I0
sg10
I11
sg11
I0
ssg1
(S'\x07\xda\x0b\x08\x0c"\x14\x00\x00\x00'
p189
tp190
Rp191
(dp192
g6
I12
sg7
I0
sg8
I0
sg9
I0
sg10
I141
sg11
I0
ssg1
(S'\x07\xda\x0b\x19\x0b\t\x16\x00\x00\x00'
p193
tp194
Rp195
(dp196
g6
I0
sg7
I0
sg8
I0
sg9
S'apt-get install --reinstall ubuntu-desktop'
p197
sg10
I0
sg11
I0
ssg1
(S'\x07\xda\x0c\x0f\x13\x17\x01\x00\x00\x00'
p198
tp199
Rp200
(dp201
g6
I0
sg7
I0
sg8
I0
sg9
S'apt-get install mercurial'
p202
sg10
I3
sg11
I0
ssg1
(S'\x07\xda\x0b\n\r32\x00\x00\x00'
p203
tp204
Rp205
(dp206
g6
I0
sg7
I0
sg8
I0
sg9
I0
sg10
I5
sg11
I0
ssg1
(S'\x07\xda\x0b\x1a\n(\x08\x00\x00\x00'
p207
tp208
Rp209
(dp210
g6
I14
sg7
I0
sg8
I0
sg9
I0
sg10
I0
sg11
I0
ssg1
(S'\x07\xda\x0b\x18\n\x074\x00\x00\x00'
p211
tp212
Rp213
(dp214
g6
I0
sg7
I0
sg8
I0
sg9
S'apt-get install --reinstall ubuntu-desktop'
p215
sg10
I0
sg11
I0
ssg1
(S'\x07\xda\x0b\x08\x0c!\x06\x00\x00\x00'
p216
tp217
Rp218
(dp219
g6
I0
sg7
I0
sg8
I0
sg9
I0
sg10
I0
sg11
I0
ssg1
(S'\x07\xda\x0b\x13\x0c\x13(\x00\x00\x00'
p220
tp221
Rp222
(dp223
g6
I0
sg7
I0
sg8
I0
sg9
S'/usr/sbin/synaptic'
p224
sg10
I17
sg11
I0
ssg1
(S'\x07\xda\x0b\x08\r\x151\x00\x00\x00'
p225
tp226
Rp227
(dp228
g6
I0
sg7
I0
sg8
I0
sg9
S'apt-get install docky elementary-icon-theme elementary-theme elementary-wallpapers gloobus-preview midori notify-osd'
p229
sg10
I64
sg11
I0
ssg1
(S'\x07\xda\x0c\x02\n+/\x00\x00\x00'
p230
tp231
Rp232
(dp233
g6
I18
sg7
I0
sg8
I0
sg9
I0
sg10
I0
sg11
I0
ssg1
(S'\x07\xda\x0c\x06\n7\x00\x00\x00\x00'
p234
tp235
Rp236
(dp237
g6
I0
sg7
I0
sg8
I0
sg9
S'apt-get install --reinstall ubuntu-desktop'
p238
sg10
I0
sg11
I0
ssg1
(S'\x07\xda\x0c\x01\n\r\x00\x00\x00\x00'
p239
tp240
Rp241
(dp242
g6
I0
sg7
I0
sg8
I0
sg9
S'apt-get install --reinstall ubuntu-desktop'
p243
sg10
I0
sg11
I0
ssg1
(S'\x07\xda\x0c\x01\x0b\x1f/\x00\x00\x00'
p244
tp245
Rp246
(dp247
g6
I40
sg7
I0
sg8
I0
sg9
I0
sg10
I0
sg11
I0
ssg1
(S'\x07\xda\x0b\x1e\n*\x16\x00\x00\x00'
p248
tp249
Rp250
(dp251
g6
I0
sg7
I0
sg8
I0
sg9
S'apt-get install --reinstall ubuntu-desktop'
p252
sg10
I0
sg11
I0
ssg1
(S'\x07\xda\x0b\x16\n\x1a\x11\x00\x00\x00'
p253
tp254
Rp255
(dp256
g6
I0
sg7
I0
sg8
I0
sg9
S'apt-get install --reinstall ubuntu-desktop'
p257
sg10
I0
sg11
I0
ssg1
(S'\x07\xda\x0c\n\n\x123\x00\x00\x00'
p258
tp259
Rp260
(dp261
g6
I0
sg7
I0
sg8
I0
sg9
I0
sg10
I1
sg11
I0
ssg1
(S'\x07\xda\x0b\x08\x0c1\x06\x00\x00\x00'
p262
tp263
Rp264
(dp265
g6
I248
sg7
I0
sg8
I0
sg9
S'apt-get dist-upgrade'
p266
sg10
I2
sg11
I0
ssg1
(S"\x07\xda\x0b\n\x12\x13'\x00\x00\x00"
p267
tp268
Rp269
(dp270
g6
I0
sg7
I0
sg8
I0
sg9
I0
sg10
I39
sg11
I0
ssg1
(S'\x07\xda\x0c\x0f\n\x124\x00\x00\x00'
p271
tp272
Rp273
(dp274
g6
I62
sg7
I0
sg8
I0
sg9
I0
sg10
I0
sg11
I0
ssg1
(S'\x07\xda\x0b\x08\x0c.\x06\x00\x00\x00'
p275
tp276
Rp277
(dp278
g6
I0
sg7
I0
sg8
I0
sg9
I0
sg10
I1
sg11
I0
ssg1
(S"\x07\xda\x0c\x08\n\x0e'\x00\x00\x00"
p279
tp280
Rp281
(dp282
g6
I0
sg7
I0
sg8
I0
sg9
S'apt-get install --reinstall ubuntu-desktop'
p283
sg10
I0
sg11
I0
ssg1
(S'\x07\xda\x0b\t\x0c\x17\x1d\x00\x00\x00'
p284
tp285
Rp286
(dp287
g6
I0
sg7
I0
sg8
I0
sg9
S'apt-get install unity'
p288
sg10
I41
sg11
I0
ssg1
(S'\x07\xda\x0c\x08\x113\x0f\x00\x00\x00'
p289
tp290
Rp291
(dp292
g6
I0
sg7
I0
sg8
I0
sg9
I0
sg10
I13
sg11
I0
ssg1
(S'\x07\xda\x0c\x0e\r&1\x00\x00\x00'
p293
tp294
Rp295
(dp296
g6
I0
sg7
I0
sg8
I0
sg9
S'apt-get install gtk2-engines-equinox'
p297
sg10
I1
sg11
I0
ssg1
(S'\x07\xda\x0c\x01\x0c7;\x00\x00\x00'
p298
tp299
Rp300
(dp301
g6
I0
sg7
I2
sg8
I0
sg9
S'apt-get remove gnome-do'
p302
sg10
I0
sg11
I0
ssg1
(S'\x07\xda\x0c\x16\n\x19%\x00\x00\x00'
p303
tp304
Rp305
(dp306
g6
I0
sg7
I4
sg8
I0
sg9
S'apt-get autoremove'
p307
sg10
I0
sg11
I0
ssg1
(S'\x07\xda\x0c\x02\n\x0c7\x00\x00\x00'
p308
tp309
Rp310
(dp311
g6
I0
sg7
I0
sg8
I0
sg9
S'apt-get install --reinstall ubuntu-desktop'
p312
sg10
I0
sg11
I0
ssg1
(S'\x07\xda\x0b\x0f\x12;4\x00\x00\x00'
p313
tp314
Rp315
(dp316
g6
I0
sg7
I0
sg8
I0
sg9
S'apt-get install git'
p317
sg10
I3
sg11
I0
ssg1
(S'\x07\xda\x0b\x08\r\r\x00\x00\x00\x00'
p318
tp319
Rp320
(dp321
g6
I12
sg7
I0
sg8
I0
sg9
S'apt-get upgrade'
p322
sg10
I0
sg11
I0
ssg1
(S'\x07\xda\x0b\x08\r\x11\x17\x00\x00\x00'
p323
tp324
Rp325
(dp326
g6
I2
sg7
I0
sg8
I0
sg9
S'apt-get dist-upgrade'
p327
sg10
I12
sg11
I0
ssg1
(S'\x07\xda\x0b\x11\x13,\x01\x00\x00\x00'
p328
tp329
Rp330
(dp331
g6
I0
sg7
I0
sg8
I0
sg9
S'/usr/sbin/synaptic'
p332
sg10
I3
sg11
I0
ssg1
(S'\x07\xda\x0c\t\x12\x12\x18\x00\x00\x00'
p333
tp334
Rp335
(dp336
g6
I0
sg7
I0
sg8
I0
sg9
S'/usr/sbin/synaptic'
p337
sg10
I9
sg11
I0
ssg1
(S'\x07\xda\x0c\x01\r\x00.\x00\x00\x00'
p338
tp339
Rp340
(dp341
g6
I0
sg7
I0
sg8
I0
sg9
S'apt-get install guake'
p342
sg10
I1
sg11
I0
ssg1
(S'\x07\xda\x0c\t\x0b\x03 \x00\x00\x00'
p343
tp344
Rp345
(dp346
g6
I0
sg7
I0
sg8
I0
sg9
S'apt-get install python-gconf python-gnome2 python-pygame python-gobject python-gtk2 python-notify'
p347
sg10
I13
sg11
I0
ssg1
(S'\x07\xda\x0c\x0e\n\x08\n\x00\x00\x00'
p348
tp349
Rp350
(dp351
g6
I0
sg7
I0
sg8
I0
sg9
S'apt-get install --reinstall ubuntu-desktop'
p352
sg10
I0
sg11
I0
ssg1
(S'\x07\xda\x0b\x0b\n\x19\x02\x00\x00\x00'
p353
tp354
Rp355
(dp356
g6
I12
sg7
I0
sg8
I0
sg9
I0
sg10
I0
sg11
I0
ssg1
(S'\x07\xda\x0b\x08\x10\x17\x04\x00\x00\x00'
p357
tp358
Rp359
(dp360
g6
I0
sg7
I0
sg8
I0
sg9
S'apt-get install vim-gnome'
p361
sg10
I9
sg11
I0
ssg1
(S'\x07\xda\x0c\x16\n\x17\x18\x00\x00\x00'
p362
tp363
Rp364
(dp365
g6
I0
sg7
I0
sg8
I2
sg9
S'apt-get remove --purge alsa-base'
p366
sg10
I0
sg11
I0
ssg1
(S'\x07\xda\x0b\x0b\x0c\x08+\x00\x00\x00'
p367
tp368
Rp369
(dp370
g6
I0
sg7
I0
sg8
I0
sg9
I0
sg10
I1
sg11
I0
ssg1
(S'\x07\xda\x0b\n\r3\x10\x00\x00\x00'
p371
tp372
Rp373
(dp374
g6
I0
sg7
I9
sg8
I0
sg9
I0
sg10
I0
sg11
I0
ss.