(dp0
cdatetime
datetime
p1
(S'\x07\xda\x0c\n\x00\x0c*\x00\x00\x00'
p2
tp3
Rp4
(dp5
S'upgrade'
p6
I1104
sS'remove'
p7
I0
sS'purge'
p8
I0
sS'action'
p9
I0
sS'install'
p10
I47
sS'downgrade'
p11
I0
ssg1
(S'\x07\xda\n\n\x14\t!\x00\x00\x00'
p12
tp13
Rp14
(dp15
g6
I0
sg7
I7
sg8
I0
sg9
I0
sg10
I0
sg11
I0
ssg1
(S'\x07\xda\x0c\x0e\x15\x1a"\x00\x00\x00'
p16
tp17
Rp18
(dp19
g6
I0
sg7
I0
sg8
I0
sg9
S'apt-get install eclipse'
p20
sg10
I27
sg11
I0
ssg1
(S'\x07\xda\x0c\t\x17\n*\x00\x00\x00'
p21
tp22
Rp23
(dp24
g6
I1268
sg7
I0
sg8
I0
sg9
I0
sg10
I48
sg11
I0
ssg1
(S'\x07\xda\x0b\x15\x0e\x172\x00\x00\x00'
p25
tp26
Rp27
(dp28
g6
I0
sg7
I0
sg8
I0
sg9
S'apt-get install ddd'
p29
sg10
I3
sg11
I0
ssg1
(S'\x07\xdb\x01\x12\x12\x1e\x11\x00\x00\x00'
p30
tp31
Rp32
(dp33
g6
I0
sg7
I0
sg8
I0
sg9
S'apt-get install p7zip'
p34
sg10
I1
sg11
I0
ssg1
(S'\x07\xda\x0c\x0c\x13\x12\x19\x00\x00\x00'
p35
tp36
Rp37
(dp38
g6
I0
sg7
I0
sg8
I0
sg9
S'apt-get install debhelper dpatch libx11-dev libglu1-mesa-dev libgl1-mesa-dev mesa-common-dev libwxbase2.8-dev libwxgtk2.8-dev libboost-dev cmake'
p39
sg10
I8
sg11
I0
ssg1
(S'\x07\xda\n\x07\x13(\x0f\x00\x00\x00'
p40
tp41
Rp42
(dp43
g6
I0
sg7
I0
sg8
I0
sg9
I0
sg10
I10
sg11
I0
ssg1
(S'\x07\xda\x0c\n\x08.3\x00\x00\x00'
p44
tp45
Rp46
(dp47
g6
I0
sg7
I1
sg8
I0
sg9
S'apt-get -f install'
p48
sg10
I0
sg11
I0
ssg1
(S'\x07\xdb\x01\x13\t\r/\x00\x00\x00'
p49
tp50
Rp51
(dp52
g6
I0
sg7
I0
sg8
I0
sg9
S'apt-get install perl-tk'
p53
sg10
I1
sg11
I0
ssg1
(S'\x07\xda\x0c\x01\x01\x111\x00\x00\x00'
p54
tp55
Rp56
(dp57
g6
I0
sg7
I0
sg8
I0
sg9
S'apt-get install xvkbd'
p58
sg10
I3
sg11
I0
ssg1
(S'\x07\xda\n\x13\x16\x14#\x00\x00\x00'
p59
tp60
Rp61
(dp62
g6
I0
sg7
I0
sg8
I0
sg9
S'apt-get -f install --reinstall tftpd'
p63
sg10
I0
sg11
I0
ssg1
(S'\x07\xda\x0c\t\x17:\x07\x00\x00\x00'
p64
tp65
Rp66
(dp67
g6
I1140
sg7
I0
sg8
I0
sg9
I0
sg10
I48
sg11
I0
ssg1
(S'\x07\xda\n\x1f\x13\x1d"\x00\x00\x00'
p68
tp69
Rp70
(dp71
g6
I0
sg7
I0
sg8
I0
sg9
S'apt-get install soundconverter'
p72
sg10
I3
sg11
I0
ssg1
(S'\x07\xda\n\x1f\x13\x1f.\x00\x00\x00'
p73
tp74
Rp75
(dp76
g6
I0
sg7
I0
sg8
I0
sg9
S'apt-get install gstreamer0.10-lame'
p77
sg10
I1
sg11
I0
ssg1
(S'\x07\xda\x0c\t\t.1\x00\x00\x00'
p78
tp79
Rp80
(dp81
g6
I1540
sg7
I13
sg8
I0
sg9
I0
sg10
I51
sg11
I0
ssg1
(S'\x07\xda\n\x13\x16\x15\x00\x00\x00\x00'
p82
tp83
Rp84
(dp85
g6
I0
sg7
I0
sg8
I0
sg9
S'apt-get -f install --reinstall tftpd'
p86
sg10
I0
sg11
I0
ssg1
(S'\x07\xda\n\x13\x16\x0f6\x00\x00\x00'
p87
tp88
Rp89
(dp90
g6
I0
sg7
I3
sg8
I0
sg9
I0
sg10
I1
sg11
I0
ssg1
(S'\x07\xda\x0c\x0b\x0b9+\x00\x00\x00'
p91
tp92
Rp93
(dp94
g6
I6
sg7
I1
sg8
I0
sg9
I0
sg10
I7
sg11
I0
ssg1
(S'\x07\xda\n\x1f\x13\x15:\x00\x00\x00'
p95
tp96
Rp97
(dp98
g6
I0
sg7
I0
sg8
I0
sg9
S'apt-get install soundKonverter'
p99
sg10
I21
sg11
I0
ssg1
(S'\x07\xda\n\x18\x044\x10\x00\x00\x00'
p100
tp101
Rp102
(dp103
g6
I0
sg7
I0
sg8
I0
sg9
S'apt-get install libgtk2-perl'
p104
sg10
I7
sg11
I0
ssg1
(S'\x07\xdb\x01\x03\x166\r\x00\x00\x00'
p105
tp106
Rp107
(dp108
g6
I390
sg7
I4
sg8
I0
sg9
I0
sg10
I8
sg11
I0
ssg1
(S'\x07\xda\x0c\n\x08\x1a\x17\x00\x00\x00'
p109
tp110
Rp111
(dp112
g6
I0
sg7
I1
sg8
I0
sg9
S'apt-get install drupal6'
p113
sg10
I37
sg11
I0
ssg1
(S'\x07\xdb\x01\x13\t*4\x00\x00\x00'
p114
tp115
Rp116
(dp117
g6
I0
sg7
I0
sg8
I0
sg9
I0
sg10
I1
sg11
I0
ssg1
(S'\x07\xdb\x01\x17\x02\x17\x0e\x00\x00\x00'
p118
tp119
Rp120
(dp121
g6
I0
sg7
I0
sg8
I0
sg9
S'apt-get install plotutils'
p122
sg10
I1
sg11
I0
ssg1
(S'\x07\xda\x0c\x0c\x13\x0c(\x00\x00\x00'
p123
tp124
Rp125
(dp126
g6
I0
sg7
I0
sg8
I0
sg9
S'apt-get install bzr-git'
p127
sg10
I13
sg11
I0
ssg1
(S'\x07\xda\x0b\x15\x14\x13/\x00\x00\x00'
p128
tp129
Rp130
(dp131
g6
I0
sg7
I0
sg8
I0
sg9
S'apt-get install libdvdcss'
p132
sg10
I1
sg11
I0
ssg1
(S'\x07\xda\n\x18\x14 *\x00\x00\x00'
p133
tp134
Rp135
(dp136
g6
I0
sg7
I0
sg8
I0
sg9
S'apt-get install kmplayer'
p137
sg10
I1
sg11
I0
ssg1
(S'\x07\xda\n\x07\x13\x13\x16\x00\x00\x00'
p138
tp139
Rp140
(dp141
g6
I14
sg7
I1
sg8
I0
sg9
I0
sg10
I5
sg11
I0
ssg1
(S'\x07\xda\n\x18\x0f*\n\x00\x00\x00'
p142
tp143
Rp144
(dp145
g6
I0
sg7
I0
sg8
I0
sg9
I0
sg10
I8
sg11
I0
ss.