(dp0
cdatetime
datetime
p1
(S'\x07\xda\x0b\x0b\x17 \x17\x00\x00\x00'
p2
tp3
Rp4
(dp5
S'upgrade'
p6
I12
sS'remove'
p7
I0
sS'purge'
p8
I0
sS'action'
p9
S'/usr/sbin/synaptic'
p10
sS'install'
p11
I4
sS'downgrade'
p12
I0
ssg1
(S'\x07\xda\n\x04\x11\x13"\x00\x00\x00'
p13
tp14
Rp15
(dp16
g6
I58
sg7
I0
sg8
I0
sg9
S'/usr/sbin/synaptic'
p17
sg11
I0
sg12
I0
ssg1
(S'\x07\xdb\x01\x0c\x11\x14\x15\x00\x00\x00'
p18
tp19
Rp20
(dp21
g6
I8
sg7
I0
sg8
I0
sg9
S'/usr/sbin/synaptic'
p22
sg11
I0
sg12
I0
ssg1
(S'\x07\xda\t\x1c\x07!\x1e\x00\x00\x00'
p23
tp24
Rp25
(dp26
g6
I20
sg7
I0
sg8
I0
sg9
S'/usr/sbin/synaptic'
p27
sg11
I0
sg12
I0
ssg1
(S'\x07\xda\n\x16\x15\n;\x00\x00\x00'
p28
tp29
Rp30
(dp31
g6
I8
sg7
I0
sg8
I0
sg9
S'/usr/sbin/synaptic'
p32
sg11
I0
sg12
I0
ssg1
(S'\x07\xda\t\x13\x07\x1b\x04\x00\x00\x00'
p33
tp34
Rp35
(dp36
g6
I50
sg7
I0
sg8
I0
sg9
S'/usr/sbin/synaptic'
p37
sg11
I0
sg12
I0
ssg1
(S'\x07\xda\t\x10\t\x00(\x00\x00\x00'
p38
tp39
Rp40
(dp41
g6
I4
sg7
I0
sg8
I0
sg9
S'/usr/sbin/synaptic'
p42
sg11
I0
sg12
I0
ssg1
(S'\x07\xda\x0b\x16\x08&\n\x00\x00\x00'
p43
tp44
Rp45
(dp46
g6
I0
sg7
I0
sg8
I0
sg9
S'apt-get install -f -y'
p47
sg11
I0
sg12
I0
ssg1
(S'\x07\xda\t\x1e\x11\n:\x00\x00\x00'
p48
tp49
Rp50
(dp51
g6
I10
sg7
I0
sg8
I0
sg9
S'/usr/sbin/synaptic'
p52
sg11
I0
sg12
I0
ssg1
(S'\x07\xda\n\x13\x16\x15(\x00\x00\x00'
p53
tp54
Rp55
(dp56
g6
I0
sg7
I0
sg8
I0
sg9
S'/usr/sbin/synaptic'
p57
sg11
I1
sg12
I0
ssg1
(S'\x07\xda\n\x1b\x017\x01\x00\x00\x00'
p58
tp59
Rp60
(dp61
g6
I6
sg7
I0
sg8
I0
sg9
S'/usr/sbin/synaptic'
p62
sg11
I0
sg12
I0
ssg1
(S'\x07\xda\n\x17\x0b"\x16\x00\x00\x00'
p63
tp64
Rp65
(dp66
g6
I8
sg7
I0
sg8
I0
sg9
S'/usr/sbin/synaptic'
p67
sg11
I0
sg12
I0
ssg1
(S'\x07\xdb\x01\x19\x08\x18\x1a\x00\x00\x00'
p68
tp69
Rp70
(dp71
g6
I36
sg7
I0
sg8
I0
sg9
S'/usr/sbin/synaptic'
p72
sg11
I0
sg12
I0
ssg1
(S'\x07\xdb\x01\x0c\x02\x14\x0e\x00\x00\x00'
p73
tp74
Rp75
(dp76
g6
I12
sg7
I0
sg8
I2
sg9
S'/usr/sbin/synaptic'
p77
sg11
I0
sg12
I0
ssg1
(S'\x07\xda\x0b\x08\x0b#\x05\x00\x00\x00'
p78
tp79
Rp80
(dp81
g6
I0
sg7
I0
sg8
I0
sg9
S'apt-get install -y firmware-linux initramfs-tools libc6 libc6-dev locales tzdata util-linux'
p82
sg11
I0
sg12
I0
ssg1
(S'\x07\xda\x0c\x0c\x01\x04\r\x00\x00\x00'
p83
tp84
Rp85
(dp86
g6
I0
sg7
I0
sg8
I2
sg9
S'/usr/sbin/synaptic'
p87
sg11
I0
sg12
I0
ssg1
(S'\x07\xda\t\x13\x14\x01\r\x00\x00\x00'
p88
tp89
Rp90
(dp91
g6
I10
sg7
I0
sg8
I0
sg9
S'/usr/sbin/synaptic'
p92
sg11
I13
sg12
I0
ssg1
(S'\x07\xda\x0b\x01\x0f\n7\x00\x00\x00'
p93
tp94
Rp95
(dp96
g6
I2
sg7
I0
sg8
I0
sg9
S'/usr/sbin/synaptic'
p97
sg11
I0
sg12
I0
ssg1
(S'\x07\xdb\x01\x16\t.\x00\x00\x00\x00'
p98
tp99
Rp100
(dp101
g6
I4
sg7
I0
sg8
I0
sg9
S'/usr/sbin/synaptic'
p102
sg11
I0
sg12
I0
ssg1
(S'\x07\xdb\x01\x17\x00\x179\x00\x00\x00'
p103
tp104
Rp105
(dp106
g6
I10
sg7
I0
sg8
I0
sg9
S'/usr/sbin/synaptic'
p107
sg11
I4
sg12
I0
ssg1
(S'\x07\xda\x0c\x04\x01+\x01\x00\x00\x00'
p108
tp109
Rp110
(dp111
g6
I0
sg7
I0
sg8
I0
sg9
S'apt-get install -f -y'
p112
sg11
I0
sg12
I0
ssg1
(S'\x07\xda\x0b\x1b\x10\x11\x02\x00\x00\x00'
p113
tp114
Rp115
(dp116
g6
I10
sg7
I0
sg8
I0
sg9
S'/usr/sbin/synaptic'
p117
sg11
I0
sg12
I0
ssg1
(S'\x07\xdb\x01\x07\x15"%\x00\x00\x00'
p118
tp119
Rp120
(dp121
g6
I30
sg7
I0
sg8
I0
sg9
S'/usr/sbin/synaptic'
p122
sg11
I0
sg12
I0
ssg1
(S'\x07\xda\x0c\x0e\x088:\x00\x00\x00'
p123
tp124
Rp125
(dp126
g6
I0
sg7
I0
sg8
I0
sg9
S'/usr/sbin/synaptic'
p127
sg11
I1
sg12
I0
ssg1
(S'\x07\xda\x0b\x11\n\n(\x00\x00\x00'
p128
tp129
Rp130
(dp131
g6
I40
sg7
I0
sg8
I0
sg9
S'synaptic'
p132
sg11
I0
sg12
I0
ssg1
(S'\x07\xda\x0b\x18\x15!\x1a\x00\x00\x00'
p133
tp134
Rp135
(dp136
g6
I8
sg7
I0
sg8
I0
sg9
S'/usr/sbin/synaptic'
p137
sg11
I0
sg12
I0
ssg1
(S'\x07\xda\x0b\x13\x02\x0b5\x00\x00\x00'
p138
tp139
Rp140
(dp141
g6
I0
sg7
I0
sg8
I0
sg9
S'apt-get install -f -y'
p142
sg11
I0
sg12
I0
ssg1
(S'\x07\xda\t\n\x0b2!\x00\x00\x00'
p143
tp144
Rp145
(dp146
g6
I8
sg7
I0
sg8
I0
sg9
S'/usr/sbin/synaptic'
p147
sg11
I0
sg12
I0
ssg1
(S'\x07\xdb\x01\x1c\x08+!\x00\x00\x00'
p148
tp149
Rp150
(dp151
g6
I6
sg7
I0
sg8
I0
sg9
S'/usr/sbin/synaptic'
p152
sg11
I0
sg12
I0
ssg1
(S'\x07\xdb\x01\x1a\x10&\x13\x00\x00\x00'
p153
tp154
Rp155
(dp156
g6
I2
sg7
I0
sg8
I0
sg9
S'/usr/sbin/synaptic'
p157
sg11
I0
sg12
I0
ssg1
(S'\x07\xda\n\x1f\x142:\x00\x00\x00'
p158
tp159
Rp160
(dp161
g6
I24
sg7
I0
sg8
I0
sg9
S'/usr/sbin/synaptic'
p162
sg11
I0
sg12
I0
ssg1
(S'\x07\xdb\x01\x07\x0198\x00\x00\x00'
p163
tp164
Rp165
(dp166
g6
I10
sg7
I0
sg8
I0
sg9
S'/usr/sbin/synaptic'
p167
sg11
I0
sg12
I0
ssg1
(S'\x07\xdb\x01\x07\t;:\x00\x00\x00'
p168
tp169
Rp170
(dp171
g6
I10
sg7
I0
sg8
I0
sg9
S'/usr/sbin/synaptic'
p172
sg11
I0
sg12
I0
ssg1
(S'\x07\xda\x0c\x0c\x01\x00;\x00\x00\x00'
p173
tp174
Rp175
(dp176
g6
I0
sg7
I0
sg8
I0
sg9
S'apt-get install -y firmware-linux initramfs-tools libc6 libc6-dev locales tzdata util-linux'
p177
sg11
I0
sg12
I0
ssg1
(S'\x07\xda\n\t\x0b#\x0f\x00\x00\x00'
p178
tp179
Rp180
(dp181
g6
I20
sg7
I0
sg8
I0
sg9
S'/usr/sbin/synaptic'
p182
sg11
I0
sg12
I0
ssg1
(S'\x07\xda\x0b\x03\x0f\x1f\x17\x00\x00\x00'
p183
tp184
Rp185
(dp186
g6
I2
sg7
I0
sg8
I0
sg9
S'/usr/sbin/synaptic'
p187
sg11
I0
sg12
I0
ssg1
(S'\x07\xda\x0b\x1a\n4\x05\x00\x00\x00'
p188
tp189
Rp190
(dp191
g6
I10
sg7
I0
sg8
I0
sg9
S'/usr/sbin/synaptic'
p192
sg11
I0
sg12
I0
ssg1
(S'\x07\xda\t\x08\r \x1c\x00\x00\x00'
p193
tp194
Rp195
(dp196
g6
I0
sg7
I0
sg8
I1
sg9
S'/usr/sbin/synaptic'
p197
sg11
I0
sg12
I0
ssg1
(S'\x07\xda\x0c\n\t(\x03\x00\x00\x00'
p198
tp199
Rp200
(dp201
g6
I14
sg7
I0
sg8
I1
sg9
S'/usr/sbin/synaptic'
p202
sg11
I4
sg12
I0
ssg1
(S'\x07\xda\x0b\x1b\t+2\x00\x00\x00'
p203
tp204
Rp205
(dp206
g6
I72
sg7
I0
sg8
I0
sg9
S'/usr/sbin/synaptic'
p207
sg11
I0
sg12
I0
ssg1
(S'\x07\xda\n\x1f\x00"$\x00\x00\x00'
p208
tp209
Rp210
(dp211
g6
I0
sg7
I0
sg8
I2
sg9
S'/usr/sbin/synaptic'
p212
sg11
I0
sg12
I0
ssg1
(S'\x07\xda\t\x11\x01\x1b\x02\x00\x00\x00'
p213
tp214
Rp215
(dp216
g6
I24
sg7
I0
sg8
I0
sg9
S'/usr/sbin/synaptic'
p217
sg11
I0
sg12
I0
ssg1
(S'\x07\xda\x0c\x0e\x08\x007\x00\x00\x00'
p218
tp219
Rp220
(dp221
g6
I4
sg7
I0
sg8
I0
sg9
S'/usr/sbin/synaptic'
p222
sg11
I4
sg12
I0
ssg1
(S'\x07\xda\n\x15\x13\x12\r\x00\x00\x00'
p223
tp224
Rp225
(dp226
g6
I4
sg7
I0
sg8
I0
sg9
S'/usr/sbin/synaptic'
p227
sg11
I4
sg12
I0
ssg1
(S"\x07\xda\x0c\x1d\x13\x04'\x00\x00\x00"
p228
tp229
Rp230
(dp231
g6
I6
sg7
I0
sg8
I0
sg9
S'/usr/sbin/synaptic'
p232
sg11
I0
sg12
I0
ssg1
(S'\x07\xda\x0b\x1a\x01*\x04\x00\x00\x00'
p233
tp234
Rp235
(dp236
g6
I12
sg7
I0
sg8
I0
sg9
S'/usr/sbin/synaptic'
p237
sg11
I0
sg12
I0
ssg1
(S'\x07\xda\x0c\x1a\x12::\x00\x00\x00'
p238
tp239
Rp240
(dp241
g6
I8
sg7
I0
sg8
I0
sg9
S'/usr/sbin/synaptic'
p242
sg11
I0
sg12
I0
ssg1
(S'\x07\xda\x0c\n\x005\x1c\x00\x00\x00'
p243
tp244
Rp245
(dp246
g6
I0
sg7
I0
sg8
I0
sg9
S'/usr/sbin/synaptic'
p247
sg11
I1
sg12
I0
ssg1
(S'\x07\xdb\x01\x18\x14\x08\x10\x00\x00\x00'
p248
tp249
Rp250
(dp251
g6
I2
sg7
I0
sg8
I0
sg9
S'/usr/sbin/synaptic'
p252
sg11
I0
sg12
I0
ssg1
(S'\x07\xda\x0c\x1e\x11\n\x16\x00\x00\x00'
p253
tp254
Rp255
(dp256
g6
I16
sg7
I0
sg8
I0
sg9
S'/usr/sbin/synaptic'
p257
sg11
I0
sg12
I0
ssg1
(S'\x07\xda\x0c\x06\t\r,\x00\x00\x00'
p258
tp259
Rp260
(dp261
g6
I0
sg7
I0
sg8
I0
sg9
S'apt-get install -f -y'
p262
sg11
I0
sg12
I0
ssg1
(S'\x07\xda\n\x03\r-\x17\x00\x00\x00'
p263
tp264
Rp265
(dp266
g6
I22
sg7
I0
sg8
I0
sg9
S'/usr/sbin/synaptic'
p267
sg11
I0
sg12
I0
ssg1
(S'\x07\xda\x0b\t\x08\x02(\x00\x00\x00'
p268
tp269
Rp270
(dp271
g6
I0
sg7
I0
sg8
I0
sg9
S'apt-get install -f -y'
p272
sg11
I0
sg12
I0
ssg1
(S'\x07\xda\n\x08\x07\x02\x04\x00\x00\x00'
p273
tp274
Rp275
(dp276
g6
I76
sg7
I0
sg8
I0
sg9
S'/usr/sbin/synaptic'
p277
sg11
I0
sg12
I0
ssg1
(S'\x07\xda\x0b\x08\x0b\x10)\x00\x00\x00'
p278
tp279
Rp280
(dp281
g6
I0
sg7
I0
sg8
I0
sg9
S'apt-get -y install build-essential'
p282
sg11
I0
sg12
I0
ssg1
(S"\x07\xda\x0b\x08\x0b'2\x00\x00\x00"
p283
tp284
Rp285
(dp286
g6
I0
sg7
I0
sg8
I2
sg9
S'/usr/sbin/synaptic'
p287
sg11
I0
sg12
I0
ssg1
(S'\x07\xda\x0b\x13\x02\x0b/\x00\x00\x00'
p288
tp289
Rp290
(dp291
g6
I0
sg7
I0
sg8
I0
sg9
S'apt-get install -f -y'
p292
sg11
I0
sg12
I0
ssg1
(S'\x07\xda\t\x17\x16\x03$\x00\x00\x00'
p293
tp294
Rp295
(dp296
g6
I26
sg7
I0
sg8
I0
sg9
S'/usr/sbin/synaptic'
p297
sg11
I0
sg12
I0
ssg1
(S'\x07\xda\x0b\x08\x0c(\x02\x00\x00\x00'
p298
tp299
Rp300
(dp301
g6
I0
sg7
I0
sg8
I0
sg9
S'/usr/sbin/synaptic'
p302
sg11
I1
sg12
I0
ssg1
(S'\x07\xdb\x01\r\x008\x11\x00\x00\x00'
p303
tp304
Rp305
(dp306
g6
I16
sg7
I0
sg8
I0
sg9
S'/usr/sbin/synaptic'
p307
sg11
I0
sg12
I0
ssg1
(S'\x07\xda\x0b\x17\n\n\x0c\x00\x00\x00'
p308
tp309
Rp310
(dp311
g6
I0
sg7
I0
sg8
I2
sg9
S'/usr/sbin/synaptic'
p312
sg11
I0
sg12
I0
ssg1
(S'\x07\xdb\x01\x18\x141\x06\x00\x00\x00'
p313
tp314
Rp315
(dp316
g6
I0
sg7
I0
sg8
I1
sg9
S'/usr/sbin/synaptic'
p317
sg11
I0
sg12
I0
ssg1
(S'\x07\xda\x0b\x0f\x0b\x15/\x00\x00\x00'
p318
tp319
Rp320
(dp321
g6
I2
sg7
I0
sg8
I3
sg9
S'/usr/sbin/synaptic'
p322
sg11
I0
sg12
I0
ssg1
(S'\x07\xda\x0b\n\x0e\x102\x00\x00\x00'
p323
tp324
Rp325
(dp326
g6
I2
sg7
I0
sg8
I0
sg9
S'/usr/sbin/synaptic'
p327
sg11
I0
sg12
I0
ssg1
(S'\x07\xda\x0b\x14\n\x0f\n\x00\x00\x00'
p328
tp329
Rp330
(dp331
g6
I2
sg7
I0
sg8
I0
sg9
S'/usr/sbin/synaptic'
p332
sg11
I0
sg12
I0
ssg1
(S'\x07\xda\x0b\t\x07;7\x00\x00\x00'
p333
tp334
Rp335
(dp336
g6
I10
sg7
I0
sg8
I0
sg9
S'/usr/sbin/synaptic'
p337
sg11
I4
sg12
I0
ssg1
(S'\x07\xdb\x01\x17\x003\x10\x00\x00\x00'
p338
tp339
Rp340
(dp341
g6
I0
sg7
I0
sg8
I2
sg9
S'/usr/sbin/synaptic'
p342
sg11
I0
sg12
I0
ssg1
(S'\x07\xda\x0b\x0c\x02\x02\x0f\x00\x00\x00'
p343
tp344
Rp345
(dp346
g6
I0
sg7
I0
sg8
I0
sg9
S'apt-get -y install build-essential'
p347
sg11
I0
sg12
I0
ssg1
(S'\x07\xda\x0b\x11\x01\x0e)\x00\x00\x00'
p348
tp349
Rp350
(dp351
g6
I0
sg7
I0
sg8
I0
sg9
S'apt-get install -y firmware-linux initramfs-tools libc6 libc6-dev locales tzdata util-linux'
p352
sg11
I0
sg12
I0
ssg1
(S"\x07\xda\x0b\x08\r\x04'\x00\x00\x00"
p353
tp354
Rp355
(dp356
g6
I0
sg7
I0
sg8
I0
sg9
S'apt-get install kexec-tools'
p357
sg11
I1
sg12
I0
ssg1
(S'\x07\xda\t\x0f\x08\x014\x00\x00\x00'
p358
tp359
Rp360
(dp361
g6
I24
sg7
I0
sg8
I0
sg9
S'/usr/sbin/synaptic'
p362
sg11
I0
sg12
I0
ssg1
(S'\x07\xda\t\x02\r-&\x00\x00\x00'
p363
tp364
Rp365
(dp366
g6
I0
sg7
I0
sg8
I0
sg9
S'/usr/sbin/synaptic'
p367
sg11
I1
sg12
I0
ssg1
(S'\x07\xda\t\x02\x0b\x12\x12\x00\x00\x00'
p368
tp369
Rp370
(dp371
g6
I0
sg7
I0
sg8
I0
sg9
S'/usr/sbin/synaptic'
p372
sg11
I0
sg12
I0
ssg1
(S'\x07\xda\t\x07\x08!\x18\x00\x00\x00'
p373
tp374
Rp375
(dp376
g6
I0
sg7
I0
sg8
I0
sg9
S'/usr/sbin/synaptic'
p377
sg11
I7
sg12
I0
ssg1
(S'\x07\xda\x08\x1c\x16 7\x00\x00\x00'
p378
tp379
Rp380
(dp381
g6
I24
sg7
I0
sg8
I0
sg9
S'/usr/sbin/synaptic'
p382
sg11
I0
sg12
I0
ssg1
(S'\x07\xda\x0c\x0e\t$\x01\x00\x00\x00'
p383
tp384
Rp385
(dp386
g6
I0
sg7
I0
sg8
I0
sg9
S'/usr/sbin/synaptic'
p387
sg11
I5
sg12
I0
ssg1
(S'\x07\xda\n\x12\x11\t\x1d\x00\x00\x00'
p388
tp389
Rp390
(dp391
g6
I4
sg7
I0
sg8
I0
sg9
S'/usr/sbin/synaptic'
p392
sg11
I0
sg12
I0
ssg1
(S'\x07\xdb\x01\r\n$\x07\x00\x00\x00'
p393
tp394
Rp395
(dp396
g6
I2
sg7
I0
sg8
I0
sg9
S'/usr/sbin/synaptic'
p397
sg11
I0
sg12
I0
ssg1
(S'\x07\xda\x0b\x17\n\x04(\x00\x00\x00'
p398
tp399
Rp400
(dp401
g6
I0
sg7
I0
sg8
I0
sg9
S'apt-get install -y firmware-linux initramfs-tools libc6 libc6-dev locales tzdata util-linux'
p402
sg11
I0
sg12
I0
ssg1
(S'\x07\xdb\x01\x08\x14;\x1d\x00\x00\x00'
p403
tp404
Rp405
(dp406
g6
I14
sg7
I0
sg8
I0
sg9
S'/usr/sbin/synaptic'
p407
sg11
I0
sg12
I0
ssg1
(S'\x07\xda\x0c\n\n\x10\x17\x00\x00\x00'
p408
tp409
Rp410
(dp411
g6
I0
sg7
I0
sg8
I2
sg9
S'/usr/sbin/synaptic'
p412
sg11
I0
sg12
I0
ssg1
(S'\x07\xda\x0c\x12\n"\n\x00\x00\x00'
p413
tp414
Rp415
(dp416
g6
I4
sg7
I0
sg8
I0
sg9
S'/usr/sbin/synaptic'
p417
sg11
I0
sg12
I0
ssg1
(S'\x07\xda\n\x13\x16\x139\x00\x00\x00'
p418
tp419
Rp420
(dp421
g6
I0
sg7
I0
sg8
I0
sg9
S'/usr/sbin/synaptic'
p422
sg11
I19
sg12
I0
ssg1
(S'\x07\xda\n\x02\x0e %\x00\x00\x00'
p423
tp424
Rp425
(dp426
g6
I4
sg7
I0
sg8
I0
sg9
S'/usr/sbin/synaptic'
p427
sg11
I0
sg12
I0
ssg1
(S"\x07\xda\t\x15\x06 '\x00\x00\x00"
p428
tp429
Rp430
(dp431
g6
I28
sg7
I0
sg8
I0
sg9
S'/usr/sbin/synaptic'
p432
sg11
I4
sg12
I0
ssg1
(S'\x07\xda\x0c\x04\x13\x15\x0e\x00\x00\x00'
p433
tp434
Rp435
(dp436
g6
I10
sg7
I0
sg8
I0
sg9
S'/usr/sbin/synaptic'
p437
sg11
I0
sg12
I0
ssg1
(S'\x07\xda\x0c\x13\x12!/\x00\x00\x00'
p438
tp439
Rp440
(dp441
g6
I2
sg7
I0
sg8
I0
sg9
S'/usr/sbin/synaptic'
p442
sg11
I0
sg12
I0
ssg1
(S'\x07\xda\x0c\x18\x08.\x16\x00\x00\x00'
p443
tp444
Rp445
(dp446
g6
I6
sg7
I0
sg8
I0
sg9
S'/usr/sbin/synaptic'
p447
sg11
I0
sg12
I0
ssg1
(S'\x07\xda\x0c\x04\x01&,\x00\x00\x00'
p448
tp449
Rp450
(dp451
g6
I4
sg7
I0
sg8
I0
sg9
S'/usr/sbin/synaptic'
p452
sg11
I4
sg12
I0
ssg1
(S'\x07\xda\x0b\x0c\x015(\x00\x00\x00'
p453
tp454
Rp455
(dp456
g6
I0
sg7
I0
sg8
I0
sg9
S'apt-get install -y firmware-linux initramfs-tools libc6 libc6-dev locales tzdata util-linux'
p457
sg11
I0
sg12
I0
ssg1
(S'\x07\xda\t\x1d\x00\x11)\x00\x00\x00'
p458
tp459
Rp460
(dp461
g6
I2
sg7
I0
sg8
I0
sg9
S'/usr/sbin/synaptic'
p462
sg11
I0
sg12
I0
ssg1
(S"\x07\xda\x0c\x06\x08'3\x00\x00\x00"
p463
tp464
Rp465
(dp466
g6
I14
sg7
I0
sg8
I0
sg9
S'/usr/sbin/synaptic'
p467
sg11
I4
sg12
I0
ssg1
(S'\x07\xdb\x01\x11\x00\x17\n\x00\x00\x00'
p468
tp469
Rp470
(dp471
g6
I4
sg7
I0
sg8
I0
sg9
S'/usr/sbin/synaptic'
p472
sg11
I4
sg12
I0
ssg1
(S'\x07\xda\x0b\t\x08\x08\x13\x00\x00\x00'
p473
tp474
Rp475
(dp476
g6
I0
sg7
I0
sg8
I2
sg9
S'/usr/sbin/synaptic'
p477
sg11
I0
sg12
I0
ssg1
(S'\x07\xda\x08\x1f\x138\x1c\x00\x00\x00'
p478
tp479
Rp480
(dp481
g6
I8
sg7
I0
sg8
I2
sg9
S'/usr/sbin/synaptic'
p482
sg11
I0
sg12
I0
ssg1
(S'\x07\xda\x0c\x19\x0f\x13\x14\x00\x00\x00'
p483
tp484
Rp485
(dp486
g6
I4
sg7
I0
sg8
I0
sg9
S'/usr/sbin/synaptic'
p487
sg11
I2
sg12
I0
ssg1
(S'\x07\xda\x0b\x06\x11.\x04\x00\x00\x00'
p488
tp489
Rp490
(dp491
g6
I26
sg7
I0
sg8
I0
sg9
S'/usr/sbin/synaptic'
p492
sg11
I0
sg12
I0
ssg1
(S'\x07\xda\n\x0e\x13\x10\x16\x00\x00\x00'
p493
tp494
Rp495
(dp496
g6
I2
sg7
I0
sg8
I0
sg9
S'/usr/sbin/synaptic'
p497
sg11
I0
sg12
I0
ssg1
(S'\x07\xda\x0b\x0f\x0b\x03,\x00\x00\x00'
p498
tp499
Rp500
(dp501
g6
I60
sg7
I0
sg8
I0
sg9
S'/usr/sbin/synaptic'
p502
sg11
I4
sg12
I0
ssg1
(S'\x07\xda\x0c\x0f\x02$3\x00\x00\x00'
p503
tp504
Rp505
(dp506
g6
I0
sg7
I0
sg8
I0
sg9
S'apt-get install -f -y'
p507
sg11
I0
sg12
I0
ssg1
(S'\x07\xda\x0b\x13\x02\x0b2\x00\x00\x00'
p508
tp509
Rp510
(dp511
g6
I0
sg7
I0
sg8
I0
sg9
S'apt-get install -y firmware-linux initramfs-tools libc6 libc6-dev locales tzdata util-linux'
p512
sg11
I0
sg12
I0
ssg1
(S'\x07\xda\x0c\x05\x08\x0f\x1a\x00\x00\x00'
p513
tp514
Rp515
(dp516
g6
I16
sg7
I0
sg8
I0
sg9
S'/usr/sbin/synaptic'
p517
sg11
I0
sg12
I0
ssg1
(S'\x07\xda\x0c\x12\x01\x170\x00\x00\x00'
p518
tp519
Rp520
(dp521
g6
I2
sg7
I0
sg8
I0
sg9
S'/usr/sbin/synaptic'
p522
sg11
I0
sg12
I0
ssg1
(S'\x07\xda\x0b\x04\t\x0e,\x00\x00\x00'
p523
tp524
Rp525
(dp526
g6
I12
sg7
I0
sg8
I0
sg9
S'/usr/sbin/synaptic'
p527
sg11
I0
sg12
I0
ssg1
(S'\x07\xda\x0b\x07\x01\x03\x03\x00\x00\x00'
p528
tp529
Rp530
(dp531
g6
I0
sg7
I0
sg8
I2
sg9
S'/usr/sbin/synaptic'
p532
sg11
I0
sg12
I0
ssg1
(S'\x07\xdb\x01\x12\x15\x0b3\x00\x00\x00'
p533
tp534
Rp535
(dp536
g6
I6
sg7
I0
sg8
I0
sg9
S'/usr/sbin/synaptic'
p537
sg11
I0
sg12
I0
ssg1
(S'\x07\xda\x0b\x18\x0f\x15*\x00\x00\x00'
p538
tp539
Rp540
(dp541
g6
I8
sg7
I0
sg8
I0
sg9
S'/usr/sbin/synaptic'
p542
sg11
I0
sg12
I0
ssg1
(S'\x07\xda\x0b\t\x08\x020\x00\x00\x00'
p543
tp544
Rp545
(dp546
g6
I0
sg7
I0
sg8
I0
sg9
S'apt-get install -y linux-headers-2.6.36-0.dmz.8-liquorix-686 linux-image-2.6.36-0.dmz.8-liquorix-686'
p547
sg11
I0
sg12
I0
ssg1
(S'\x07\xda\x0c\x07\x07\x12 \x00\x00\x00'
p548
tp549
Rp550
(dp551
g6
I2
sg7
I0
sg8
I0
sg9
S'/usr/sbin/synaptic'
p552
sg11
I0
sg12
I0
ssg1
(S'\x07\xdb\x01\x06\n#\x1a\x00\x00\x00'
p553
tp554
Rp555
(dp556
g6
I10
sg7
I0
sg8
I0
sg9
S'/usr/sbin/synaptic'
p557
sg11
I4
sg12
I0
ssg1
(S'\x07\xda\x0c\x0e\x08\x03&\x00\x00\x00'
p558
tp559
Rp560
(dp561
g6
I0
sg7
I0
sg8
I2
sg9
S'/usr/sbin/synaptic'
p562
sg11
I0
sg12
I0
ssg1
(S'\x07\xda\x0b\x1c\x0747\x00\x00\x00'
p563
tp564
Rp565
(dp566
g6
I0
sg7
I0
sg8
I0
sg9
S'apt-get install -f -y'
p567
sg11
I0
sg12
I0
ssg1
(S'\x07\xda\n\x05\n!\x17\x00\x00\x00'
p568
tp569
Rp570
(dp571
g6
I0
sg7
I0
sg8
I0
sg9
S'/usr/sbin/synaptic'
p572
sg11
I3
sg12
I0
ssg1
(S'\x07\xda\n\x1c\x15\x05\x00\x00\x00\x00'
p573
tp574
Rp575
(dp576
g6
I24
sg7
I0
sg8
I21
sg9
S'/usr/sbin/synaptic'
p577
sg11
I42
sg12
I0
ssg1
(S'\x07\xda\n\x0e\x0c0!\x00\x00\x00'
p578
tp579
Rp580
(dp581
g6
I24
sg7
I0
sg8
I0
sg9
S'/usr/sbin/synaptic'
p582
sg11
I0
sg12
I0
ssg1
(S'\x07\xda\x0b\x08\x0b#\x07\x00\x00\x00'
p583
tp584
Rp585
(dp586
g6
I0
sg7
I0
sg8
I0
sg9
S'apt-get install -f -y'
p587
sg11
I0
sg12
I0
ssg1
(S'\x07\xda\t\x1d\x12\x01\x1a\x00\x00\x00'
p588
tp589
Rp590
(dp591
g6
I22
sg7
I0
sg8
I0
sg9
S'/usr/sbin/synaptic'
p592
sg11
I0
sg12
I0
ssg1
(S'\x07\xda\x0c\x04\x01+/\x00\x00\x00'
p593
tp594
Rp595
(dp596
g6
I0
sg7
I0
sg8
I0
sg9
S'apt-get -y install build-essential'
p597
sg11
I0
sg12
I0
ssg1
(S"\x07\xda\n\x08\x06'8\x00\x00\x00"
p598
tp599
Rp600
(dp601
g6
I0
sg7
I0
sg8
I3
sg9
S'/usr/sbin/synaptic'
p602
sg11
I0
sg12
I0
ssg1
(S'\x07\xda\x0c\x04\x01+\x03\x00\x00\x00'
p603
tp604
Rp605
(dp606
g6
I0
sg7
I0
sg8
I0
sg9
S'apt-get install -y firmware-linux initramfs-tools libc6 libc6-dev locales tzdata util-linux'
p607
sg11
I0
sg12
I0
ssg1
(S'\x07\xdb\x01\x0f\n\x15&\x00\x00\x00'
p608
tp609
Rp610
(dp611
g6
I58
sg7
I0
sg8
I0
sg9
S'/usr/sbin/synaptic'
p612
sg11
I2
sg12
I0
ssg1
(S'\x07\xdb\x01\x1e\x11\x1b\x1a\x00\x00\x00'
p613
tp614
Rp615
(dp616
g6
I8
sg7
I0
sg8
I0
sg9
S'/usr/sbin/synaptic'
p617
sg11
I0
sg12
I0
ssg1
(S'\x07\xdb\x01\x0f\x15\x0e\x1c\x00\x00\x00'
p618
tp619
Rp620
(dp621
g6
I20
sg7
I0
sg8
I0
sg9
S'/usr/sbin/synaptic'
p622
sg11
I0
sg12
I0
ssg1
(S'\x07\xdb\x01\x1d\x10\x193\x00\x00\x00'
p623
tp624
Rp625
(dp626
g6
I0
sg7
I0
sg8
I1
sg9
S'/usr/sbin/synaptic'
p627
sg11
I0
sg12
I0
ssg1
(S'\x07\xda\x0c\x06\t\x0c,\x00\x00\x00'
p628
tp629
Rp630
(dp631
g6
I0
sg7
I0
sg8
I0
sg9
S'apt-get -y install build-essential'
p632
sg11
I0
sg12
I0
ssg1
(S'\x07\xda\x0b\x17\n\x03\x1f\x00\x00\x00'
p633
tp634
Rp635
(dp636
g6
I0
sg7
I0
sg8
I0
sg9
S'apt-get install -f -y'
p637
sg11
I0
sg12
I0
ssg1
(S'\x07\xda\x0c\x01\x02\x1f#\x00\x00\x00'
p638
tp639
Rp640
(dp641
g6
I44
sg7
I0
sg8
I0
sg9
S'/usr/sbin/synaptic'
p642
sg11
I0
sg12
I0
ssg1
(S'\x07\xdb\x01\x1d\x10\x17\x1c\x00\x00\x00'
p643
tp644
Rp645
(dp646
g6
I0
sg7
I0
sg8
I1
sg9
S'/usr/sbin/synaptic'
p647
sg11
I0
sg12
I0
ssg1
(S'\x07\xda\n\x17\x08\x10\x18\x00\x00\x00'
p648
tp649
Rp650
(dp651
g6
I10
sg7
I0
sg8
I0
sg9
S'/usr/sbin/synaptic'
p652
sg11
I0
sg12
I0
ssg1
(S'\x07\xda\x0b\x13\x02\x0b7\x00\x00\x00'
p653
tp654
Rp655
(dp656
g6
I0
sg7
I0
sg8
I0
sg9
S'apt-get install -y linux-headers-2.6.36-0.dmz.14-liquorix-686 linux-image-2.6.36-0.dmz.14-liquorix-686'
p657
sg11
I0
sg12
I0
ssg1
(S'\x07\xda\x08\x1c\r$\x0b\x00\x00\x00'
p658
tp659
Rp660
(dp661
g6
I20
sg7
I0
sg8
I0
sg9
S'/usr/sbin/synaptic'
p662
sg11
I4
sg12
I0
ssg1
(S"\x07\xda\x0c\x0f\x02'\x08\x00\x00\x00"
p663
tp664
Rp665
(dp666
g6
I0
sg7
I0
sg8
I2
sg9
S'/usr/sbin/synaptic'
p667
sg11
I0
sg12
I0
ssg1
(S'\x07\xda\t\x12\x0e3\n\x00\x00\x00'
p668
tp669
Rp670
(dp671
g6
I14
sg7
I0
sg8
I0
sg9
S'/usr/sbin/synaptic'
p672
sg11
I0
sg12
I0
ssg1
(S'\x07\xda\x0b\t\x08\x02+\x00\x00\x00'
p673
tp674
Rp675
(dp676
g6
I0
sg7
I0
sg8
I0
sg9
S'apt-get install -y firmware-linux initramfs-tools libc6 libc6-dev locales tzdata util-linux'
p677
sg11
I0
sg12
I0
ssg1
(S'\x07\xda\x0c\x06\x15\x07\x18\x00\x00\x00'
p678
tp679
Rp680
(dp681
g6
I16
sg7
I0
sg8
I0
sg9
S'/usr/sbin/synaptic'
p682
sg11
I0
sg12
I0
ssg1
(S'\x07\xda\t\t\x082\r\x00\x00\x00'
p683
tp684
Rp685
(dp686
g6
I24
sg7
I0
sg8
I0
sg9
S'/usr/sbin/synaptic'
p687
sg11
I0
sg12
I0
ssg1
(S'\x07\xda\x0c\x0e\x158\x01\x00\x00\x00'
p688
tp689
Rp690
(dp691
g6
I0
sg7
I0
sg8
I1
sg9
S'/usr/sbin/synaptic'
p692
sg11
I0
sg12
I0
ssg1
(S'\x07\xda\n\x19\x00\x18\x08\x00\x00\x00'
p693
tp694
Rp695
(dp696
g6
I10
sg7
I0
sg8
I0
sg9
S'/usr/sbin/synaptic'
p697
sg11
I0
sg12
I0
ssg1
(S'\x07\xda\t\x15\x0f,9\x00\x00\x00'
p698
tp699
Rp700
(dp701
g6
I0
sg7
I0
sg8
I2
sg9
S'/usr/sbin/synaptic'
p702
sg11
I0
sg12
I0
ssg1
(S'\x07\xda\x0b\x13\x11+7\x00\x00\x00'
p703
tp704
Rp705
(dp706
g6
I26
sg7
I0
sg8
I0
sg9
S'/usr/sbin/synaptic'
p707
sg11
I0
sg12
I0
ssg1
(S'\x07\xda\x0b\x10\x11\x19"\x00\x00\x00'
p708
tp709
Rp710
(dp711
g6
I0
sg7
I0
sg8
I0
sg9
S'/usr/sbin/synaptic'
p712
sg11
I4
sg12
I0
ssg1
(S'\x07\xda\x0b\x08\x0b$\x08\x00\x00\x00'
p713
tp714
Rp715
(dp716
g6
I0
sg7
I0
sg8
I0
sg9
S'apt-get dist-upgrade'
p717
sg11
I0
sg12
I0
ssg1
(S'\x07\xda\t\r\t\x04\x0c\x00\x00\x00'
p718
tp719
Rp720
(dp721
g6
I10
sg7
I0
sg8
I0
sg9
S'/usr/sbin/synaptic'
p722
sg11
I0
sg12
I0
ssg1
(S'\x07\xdb\x01\x02\x14\x009\x00\x00\x00'
p723
tp724
Rp725
(dp726
g6
I8
sg7
I0
sg8
I0
sg9
S'/usr/sbin/synaptic'
p727
sg11
I0
sg12
I0
ssg1
(S'\x07\xda\n\x13\x08\x13\n\x00\x00\x00'
p728
tp729
Rp730
(dp731
g6
I8
sg7
I0
sg8
I0
sg9
S'/usr/sbin/synaptic'
p732
sg11
I0
sg12
I0
ssg1
(S'\x07\xda\x0b\x10\x10\x1b9\x00\x00\x00'
p733
tp734
Rp735
(dp736
g6
I0
sg7
I0
sg8
I0
sg9
S'/usr/sbin/synaptic'
p737
sg11
I1
sg12
I0
ssg1
(S'\x07\xda\x0c\x05\x0e)\x19\x00\x00\x00'
p738
tp739
Rp740
(dp741
g6
I10
sg7
I0
sg8
I0
sg9
S'/usr/sbin/synaptic'
p742
sg11
I0
sg12
I0
ssg1
(S'\x07\xda\x0b\x08\x0c#4\x00\x00\x00'
p743
tp744
Rp745
(dp746
g6
I0
sg7
I0
sg8
I0
sg9
S'/usr/sbin/synaptic'
p747
sg11
I3
sg12
I0
ssg1
(S'\x07\xda\x0b\x08\x0b#\t\x00\x00\x00'
p748
tp749
Rp750
(dp751
g6
I0
sg7
I0
sg8
I0
sg9
S'apt-get install -y linux-headers-2.6.36-0.dmz.7-liquorix-686 linux-image-2.6.36-0.dmz.7-liquorix-686'
p752
sg11
I0
sg12
I0
ssg1
(S'\x07\xda\x0b\t\x08\x02.\x00\x00\x00'
p753
tp754
Rp755
(dp756
g6
I0
sg7
I0
sg8
I0
sg9
S'apt-get install -f -y'
p757
sg11
I0
sg12
I0
ssg1
(S'\x07\xdb\x01\x11\n\x05\x0b\x00\x00\x00'
p758
tp759
Rp760
(dp761
g6
I4
sg7
I0
sg8
I0
sg9
S'/usr/sbin/synaptic'
p762
sg11
I0
sg12
I0
ssg1
(S"\x07\xda\x0c\x0e\x157'\x00\x00\x00"
p763
tp764
Rp765
(dp766
g6
I20
sg7
I0
sg8
I0
sg9
S'/usr/sbin/synaptic'
p767
sg11
I0
sg12
I0
ssg1
(S'\x07\xda\n\x1c\x16"\x19\x00\x00\x00'
p768
tp769
Rp770
(dp771
g6
I4
sg7
I0
sg8
I0
sg9
S'/usr/sbin/synaptic'
p772
sg11
I0
sg12
I0
ssg1
(S'\x07\xda\x0b\x05\n28\x00\x00\x00'
p773
tp774
Rp775
(dp776
g6
I2
sg7
I0
sg8
I0
sg9
S'/usr/sbin/synaptic'
p777
sg11
I0
sg12
I0
ssg1
(S'\x07\xda\x0b\x0b\n\x1c"\x00\x00\x00'
p778
tp779
Rp780
(dp781
g6
I4
sg7
I0
sg8
I0
sg9
S'/usr/sbin/synaptic'
p782
sg11
I0
sg12
I0
ssg1
(S'\x07\xda\x0b\x0c\x02\x04\t\x00\x00\x00'
p783
tp784
Rp785
(dp786
g6
I0
sg7
I0
sg8
I2
sg9
S'/usr/sbin/synaptic'
p787
sg11
I0
sg12
I0
ssg1
(S'\x07\xda\x0c\x0e\t\x1c!\x00\x00\x00'
p788
tp789
Rp790
(dp791
g6
I0
sg7
I3
sg8
I0
sg9
S'/usr/sbin/synaptic'
p792
sg11
I0
sg12
I0
ssg1
(S'\x07\xda\n\x14\x1622\x00\x00\x00'
p793
tp794
Rp795
(dp796
g6
I0
sg7
I0
sg8
I1
sg9
S'/usr/sbin/synaptic'
p797
sg11
I1
sg12
I0
ssg1
(S'\x07\xda\x0b\x1d\x0c\t\t\x00\x00\x00'
p798
tp799
Rp800
(dp801
g6
I24
sg7
I0
sg8
I0
sg9
S'/usr/sbin/synaptic'
p802
sg11
I4
sg12
I0
ssg1
(S'\x07\xda\n\x18\x10\x1c\x12\x00\x00\x00'
p803
tp804
Rp805
(dp806
g6
I6
sg7
I0
sg8
I0
sg9
S'/usr/sbin/synaptic'
p807
sg11
I4
sg12
I0
ssg1
(S'\x07\xda\x0c\x10\x13\x176\x00\x00\x00'
p808
tp809
Rp810
(dp811
g6
I10
sg7
I0
sg8
I0
sg9
S'/usr/sbin/synaptic'
p812
sg11
I0
sg12
I0
ssg1
(S'\x07\xda\n\x13\x16\x16\x1a\x00\x00\x00'
p813
tp814
Rp815
(dp816
g6
I6
sg7
I0
sg8
I0
sg9
S'/usr/sbin/synaptic'
p817
sg11
I0
sg12
I0
ssg1
(S'\x07\xda\x0b\r\x152\x17\x00\x00\x00'
p818
tp819
Rp820
(dp821
g6
I6
sg7
I0
sg8
I0
sg9
S'/usr/sbin/synaptic'
p822
sg11
I0
sg12
I0
ssg1
(S'\x07\xda\n\x01\x16#5\x00\x00\x00'
p823
tp824
Rp825
(dp826
g6
I62
sg7
I0
sg8
I0
sg9
S'/usr/sbin/synaptic'
p827
sg11
I0
sg12
I0
ssg1
(S'\x07\xda\n\x05\n.\x1e\x00\x00\x00'
p828
tp829
Rp830
(dp831
g6
I0
sg7
I0
sg8
I1
sg9
S'/usr/sbin/synaptic'
p832
sg11
I1
sg12
I0
ssg1
(S'\x07\xda\x0c\x12\n!/\x00\x00\x00'
p833
tp834
Rp835
(dp836
g6
I6
sg7
I0
sg8
I0
sg9
S'/usr/sbin/synaptic'
p837
sg11
I0
sg12
I0
ssg1
(S'\x07\xdb\x01\x07\x02\x04\x16\x00\x00\x00'
p838
tp839
Rp840
(dp841
g6
I0
sg7
I0
sg8
I2
sg9
S'/usr/sbin/synaptic'
p842
sg11
I0
sg12
I0
ssg1
(S'\x07\xda\x0b\x08\x0b\x1f\x1c\x00\x00\x00'
p843
tp844
Rp845
(dp846
g6
I0
sg7
I0
sg8
I0
sg9
S'apt-get -y install build-essential'
p847
sg11
I0
sg12
I0
ssg1
(S'\x07\xda\n\x14\x161\x0b\x00\x00\x00'
p848
tp849
Rp850
(dp851
g6
I0
sg7
I0
sg8
I0
sg9
S'/usr/sbin/synaptic'
p852
sg11
I1
sg12
I0
ssg1
(S'\x07\xda\n\x10\n\x12!\x00\x00\x00'
p853
tp854
Rp855
(dp856
g6
I52
sg7
I0
sg8
I0
sg9
S'/usr/sbin/synaptic'
p857
sg11
I0
sg12
I0
ssg1
(S'\x07\xda\t\x02\t*\x19\x00\x00\x00'
p858
tp859
Rp860
(dp861
g6
I0
sg7
I0
sg8
I0
sg9
S'/usr/sbin/synaptic'
p862
sg11
I0
sg12
I0
ssg1
(S'\x07\xda\n\x05\x0b\x02\x05\x00\x00\x00'
p863
tp864
Rp865
(dp866
g6
I0
sg7
I0
sg8
I1
sg9
S'/usr/sbin/synaptic'
p867
sg11
I1
sg12
I0
ssg1
(S'\x07\xda\x0c\x17\x011\x11\x00\x00\x00'
p868
tp869
Rp870
(dp871
g6
I10
sg7
I0
sg8
I0
sg9
S'/usr/sbin/synaptic'
p872
sg11
I0
sg12
I0
ssg1
(S'\x07\xda\x0c\x0e\x08\x1a\x0f\x00\x00\x00'
p873
tp874
Rp875
(dp876
g6
I4
sg7
I0
sg8
I0
sg9
S'/usr/sbin/synaptic'
p877
sg11
I0
sg12
I0
ssg1
(S'\x07\xda\x0c\x0e\n\x035\x00\x00\x00'
p878
tp879
Rp880
(dp881
g6
I0
sg7
I0
sg8
I2
sg9
S'/usr/sbin/synaptic'
p882
sg11
I0
sg12
I0
ssg1
(S'\x07\xda\x0b\x0c\x015-\x00\x00\x00'
p883
tp884
Rp885
(dp886
g6
I0
sg7
I0
sg8
I0
sg9
S'apt-get install -y linux-headers-2.6.36-0.dmz.9-liquorix-686 linux-image-2.6.36-0.dmz.9-liquorix-686'
p887
sg11
I0
sg12
I0
ssg1
(S'\x07\xda\n\x10\x11\x02\x00\x00\x00\x00'
p888
tp889
Rp890
(dp891
g6
I10
sg7
I0
sg8
I0
sg9
S'/usr/sbin/synaptic'
p892
sg11
I4
sg12
I0
ssg1
(S'\x07\xda\n\x1b\x0832\x00\x00\x00'
p893
tp894
Rp895
(dp896
g6
I2
sg7
I0
sg8
I0
sg9
S'/usr/sbin/synaptic'
p897
sg11
I0
sg12
I0
ssg1
(S'\x07\xda\x0c\x1e\x0b;/\x00\x00\x00'
p898
tp899
Rp900
(dp901
g6
I16
sg7
I0
sg8
I0
sg9
S'/usr/sbin/synaptic'
p902
sg11
I0
sg12
I0
ssg1
(S'\x07\xda\n\x1a\x00\x14\x01\x00\x00\x00'
p903
tp904
Rp905
(dp906
g6
I6
sg7
I0
sg8
I0
sg9
S'/usr/sbin/synaptic'
p907
sg11
I0
sg12
I0
ssg1
(S'\x07\xdb\x01\x1a\x08/&\x00\x00\x00'
p908
tp909
Rp910
(dp911
g6
I50
sg7
I0
sg8
I0
sg9
S'/usr/sbin/synaptic'
p912
sg11
I0
sg12
I0
ssg1
(S'\x07\xda\x0c\x08\x13%\x17\x00\x00\x00'
p913
tp914
Rp915
(dp916
g6
I10
sg7
I0
sg8
I0
sg9
S'/usr/sbin/synaptic'
p917
sg11
I0
sg12
I0
ssg1
(S'\x07\xda\n\x1c\t$\x1e\x00\x00\x00'
p918
tp919
Rp920
(dp921
g6
I0
sg7
I0
sg8
I0
sg9
S'/usr/sbin/synaptic'
p922
sg11
I1
sg12
I0
ssg1
(S'\x07\xda\x0b\x06\n\x19-\x00\x00\x00'
p923
tp924
Rp925
(dp926
g6
I20
sg7
I0
sg8
I0
sg9
S'/usr/sbin/synaptic'
p927
sg11
I0
sg12
I0
ssg1
(S'\x07\xda\x0b\x16\x08!\x16\x00\x00\x00'
p928
tp929
Rp930
(dp931
g6
I4
sg7
I0
sg8
I0
sg9
S'/usr/sbin/synaptic'
p932
sg11
I4
sg12
I0
ssg1
(S'\x07\xda\t\n\x155\x03\x00\x00\x00'
p933
tp934
Rp935
(dp936
g6
I26
sg7
I0
sg8
I0
sg9
S'/usr/sbin/synaptic'
p937
sg11
I0
sg12
I0
ssg1
(S'\x07\xda\n\x1b\x11\x11\x04\x00\x00\x00'
p938
tp939
Rp940
(dp941
g6
I4
sg7
I0
sg8
I0
sg9
S'/usr/sbin/synaptic'
p942
sg11
I0
sg12
I0
ssg1
(S'\x07\xda\x0c\x18\x100 \x00\x00\x00'
p943
tp944
Rp945
(dp946
g6
I6
sg7
I0
sg8
I0
sg9
S'/usr/sbin/synaptic'
p947
sg11
I0
sg12
I0
ssg1
(S'\x07\xda\x0c\x15\n\x0e\x11\x00\x00\x00'
p948
tp949
Rp950
(dp951
g6
I4
sg7
I0
sg8
I0
sg9
S'/usr/sbin/synaptic'
p952
sg11
I0
sg12
I0
ssg1
(S'\x07\xda\x0c\x0e\t 2\x00\x00\x00'
p953
tp954
Rp955
(dp956
g6
I0
sg7
I0
sg8
I0
sg9
S'apt-get install -f -y'
p957
sg11
I0
sg12
I0
ssg1
(S'\x07\xda\x0c\x0f\x02$,\x00\x00\x00'
p958
tp959
Rp960
(dp961
g6
I0
sg7
I0
sg8
I0
sg9
S'apt-get install -f -y'
p962
sg11
I0
sg12
I0
ssg1
(S'\x07\xda\x0b\x12\t4\x0c\x00\x00\x00'
p963
tp964
Rp965
(dp966
g6
I26
sg7
I0
sg8
I0
sg9
S'/usr/sbin/synaptic'
p967
sg11
I4
sg12
I0
ssg1
(S'\x07\xda\x0b\x0c\x166\x0c\x00\x00\x00'
p968
tp969
Rp970
(dp971
g6
I4
sg7
I0
sg8
I0
sg9
S'/usr/sbin/synaptic'
p972
sg11
I0
sg12
I0
ssg1
(S'\x07\xda\n\x1e\t\x0b\r\x00\x00\x00'
p973
tp974
Rp975
(dp976
g6
I2
sg7
I0
sg8
I0
sg9
S'/usr/sbin/synaptic'
p977
sg11
I0
sg12
I0
ssg1
(S'\x07\xda\x0b\x12\t;9\x00\x00\x00'
p978
tp979
Rp980
(dp981
g6
I0
sg7
I0
sg8
I0
sg9
S'apt-get install -y firmware-linux initramfs-tools libc6 libc6-dev locales tzdata util-linux'
p982
sg11
I0
sg12
I0
ssg1
(S'\x07\xda\x0b\x0f\x0b\x106\x00\x00\x00'
p983
tp984
Rp985
(dp986
g6
I0
sg7
I0
sg8
I0
sg9
S'apt-get install -y linux-headers-2.6.36-0.dmz.10-liquorix-686 linux-image-2.6.36-0.dmz.10-liquorix-686'
p987
sg11
I0
sg12
I0
ssg1
(S'\x07\xda\t\x16\x06,"\x00\x00\x00'
p988
tp989
Rp990
(dp991
g6
I40
sg7
I0
sg8
I0
sg9
S'/usr/sbin/synaptic'
p992
sg11
I0
sg12
I0
ssg1
(S'\x07\xda\n\x1c\x15\t\x14\x00\x00\x00'
p993
tp994
Rp995
(dp996
g6
I0
sg7
I0
sg8
I1
sg9
S'/usr/sbin/synaptic'
p997
sg11
I0
sg12
I0
ssg1
(S'\x07\xda\t\x06\x07,"\x00\x00\x00'
p998
tp999
Rp1000
(dp1001
g6
I10
sg7
I0
sg8
I0
sg9
S'/usr/sbin/synaptic'
p1002
sg11
I0
sg12
I0
ssg1
(S'\x07\xda\x0b\x0c\x015*\x00\x00\x00'
p1003
tp1004
Rp1005
(dp1006
g6
I0
sg7
I0
sg8
I0
sg9
S'apt-get install -f -y'
p1007
sg11
I0
sg12
I0
ssg1
(S'\x07\xda\x0b\x1d\x0f3\x1a\x00\x00\x00'
p1008
tp1009
Rp1010
(dp1011
g6
I34
sg7
I0
sg8
I0
sg9
S'/usr/sbin/synaptic'
p1012
sg11
I0
sg12
I0
ssg1
(S'\x07\xda\n\x15\x11\x1d5\x00\x00\x00'
p1013
tp1014
Rp1015
(dp1016
g6
I26
sg7
I0
sg8
I0
sg9
S'/usr/sbin/synaptic'
p1017
sg11
I0
sg12
I0
ssg1
(S'\x07\xdb\x01\x04\x079(\x00\x00\x00'
p1018
tp1019
Rp1020
(dp1021
g6
I2
sg7
I0
sg8
I0
sg9
S'/usr/sbin/synaptic'
p1022
sg11
I0
sg12
I0
ssg1
(S'\x07\xda\n\n\x11\x059\x00\x00\x00'
p1023
tp1024
Rp1025
(dp1026
g6
I22
sg7
I0
sg8
I0
sg9
S'/usr/sbin/synaptic'
p1027
sg11
I0
sg12
I0
ssg1
(S'\x07\xda\x0b\x11\x01\x0c\x08\x00\x00\x00'
p1028
tp1029
Rp1030
(dp1031
g6
I4
sg7
I0
sg8
I0
sg9
S'/usr/sbin/synaptic'
p1032
sg11
I4
sg12
I0
ssg1
(S'\x07\xda\x08\x1e\t8!\x00\x00\x00'
p1033
tp1034
Rp1035
(dp1036
g6
I12
sg7
I0
sg8
I0
sg9
S'/usr/sbin/synaptic'
p1037
sg11
I0
sg12
I0
ssg1
(S'\x07\xda\x0c\x1e\x00\x16\x16\x00\x00\x00'
p1038
tp1039
Rp1040
(dp1041
g6
I10
sg7
I0
sg8
I0
sg9
S'/usr/sbin/synaptic'
p1042
sg11
I0
sg12
I0
ssg1
(S'\x07\xda\x0b\x19\x0f\x13 \x00\x00\x00'
p1043
tp1044
Rp1045
(dp1046
g6
I2
sg7
I0
sg8
I0
sg9
S'/usr/sbin/synaptic'
p1047
sg11
I0
sg12
I0
ssg1
(S'\x07\xda\t\x19\x08\x06#\x00\x00\x00'
p1048
tp1049
Rp1050
(dp1051
g6
I22
sg7
I0
sg8
I0
sg9
S'/usr/sbin/synaptic'
p1052
sg11
I0
sg12
I0
ssg1
(S'\x07\xda\x0b\x0f\x144*\x00\x00\x00'
p1053
tp1054
Rp1055
(dp1056
g6
I54
sg7
I0
sg8
I0
sg9
S'/usr/sbin/synaptic'
p1057
sg11
I0
sg12
I0
ssg1
(S'\x07\xda\x0c\x12\x11/5\x00\x00\x00'
p1058
tp1059
Rp1060
(dp1061
g6
I14
sg7
I0
sg8
I0
sg9
S'/usr/sbin/synaptic'
p1062
sg11
I0
sg12
I0
ssg1
(S'\x07\xda\n\x0b\x11,\x1b\x00\x00\x00'
p1063
tp1064
Rp1065
(dp1066
g6
I20
sg7
I0
sg8
I0
sg9
S'/usr/sbin/synaptic'
p1067
sg11
I0
sg12
I0
ssg1
(S'\x07\xda\t\x08\t\x045\x00\x00\x00'
p1068
tp1069
Rp1070
(dp1071
g6
I0
sg7
I0
sg8
I1
sg9
S'/usr/sbin/synaptic'
p1072
sg11
I0
sg12
I0
ssg1
(S'\x07\xda\x0c\x0b\x00\x01 \x00\x00\x00'
p1073
tp1074
Rp1075
(dp1076
g6
I10
sg7
I0
sg8
I0
sg9
S'/usr/sbin/synaptic'
p1077
sg11
I0
sg12
I0
ssg1
(S'\x07\xda\n\x08\x06\x1f-\x00\x00\x00'
p1078
tp1079
Rp1080
(dp1081
g6
I0
sg7
I0
sg8
I0
sg9
S'apt-get install -y --allow-unauthenticated aptosid-archive-keyring'
p1082
sg11
I1
sg12
I0
ssg1
(S'\x07\xda\x0c\x04\x01+\x06\x00\x00\x00'
p1083
tp1084
Rp1085
(dp1086
g6
I0
sg7
I0
sg8
I0
sg9
S'apt-get install -f -y'
p1087
sg11
I0
sg12
I0
ssg1
(S'\x07\xda\x0b\x02\t\x0c\x17\x00\x00\x00'
p1088
tp1089
Rp1090
(dp1091
g6
I2
sg7
I0
sg8
I0
sg9
S'/usr/sbin/synaptic'
p1092
sg11
I0
sg12
I0
ssg1
(S'\x07\xda\x0b\x1e\x01*\x04\x00\x00\x00'
p1093
tp1094
Rp1095
(dp1096
g6
I0
sg7
I0
sg8
I0
sg9
S'apt-get install -y firmware-linux initramfs-tools libc6 libc6-dev locales tzdata util-linux'
p1097
sg11
I0
sg12
I0
ssg1
(S'\x07\xda\n\x05\n0\x1c\x00\x00\x00'
p1098
tp1099
Rp1100
(dp1101
g6
I0
sg7
I0
sg8
I1
sg9
S'/usr/sbin/synaptic'
p1102
sg11
I1
sg12
I0
ssg1
(S'\x07\xdb\x01\x11\x00 \x15\x00\x00\x00'
p1103
tp1104
Rp1105
(dp1106
g6
I0
sg7
I0
sg8
I2
sg9
S'/usr/sbin/synaptic'
p1107
sg11
I0
sg12
I0
ssg1
(S'\x07\xdb\x01\x1d\x10\x11\x1a\x00\x00\x00'
p1108
tp1109
Rp1110
(dp1111
g6
I0
sg7
I0
sg8
I0
sg9
S'/usr/sbin/synaptic'
p1112
sg11
I9
sg12
I0
ssg1
(S'\x07\xda\x0b\x19\n\n\x17\x00\x00\x00'
p1113
tp1114
Rp1115
(dp1116
g6
I2
sg7
I0
sg8
I0
sg9
S'/usr/sbin/synaptic'
p1117
sg11
I0
sg12
I0
ssg1
(S'\x07\xdb\x01\x1d\x03\x17\x1f\x00\x00\x00'
p1118
tp1119
Rp1120
(dp1121
g6
I2
sg7
I0
sg8
I1
sg9
S'/usr/sbin/synaptic'
p1122
sg11
I1
sg12
I0
ssg1
(S'\x07\xda\x0b\x1c\x077\x1a\x00\x00\x00'
p1123
tp1124
Rp1125
(dp1126
g6
I0
sg7
I0
sg8
I2
sg9
S'/usr/sbin/synaptic'
p1127
sg11
I0
sg12
I0
ssg1
(S'\x07\xda\x0b\x15\x15\x0f0\x00\x00\x00'
p1128
tp1129
Rp1130
(dp1131
g6
I4
sg7
I0
sg8
I0
sg9
S'/usr/sbin/synaptic'
p1132
sg11
I0
sg12
I0
ssg1
(S'\x07\xdb\x01\n\x02\r(\x00\x00\x00'
p1133
tp1134
Rp1135
(dp1136
g6
I0
sg7
I0
sg8
I4
sg9
S'/usr/sbin/synaptic'
p1137
sg11
I0
sg12
I0
ssg1
(S'\x07\xdb\x01\x13\x02\x03\x04\x00\x00\x00'
p1138
tp1139
Rp1140
(dp1141
g6
I0
sg7
I0
sg8
I2
sg9
S'/usr/sbin/synaptic'
p1142
sg11
I0
sg12
I0
ssg1
(S'\x07\xda\t\x01\x089\x0f\x00\x00\x00'
p1143
tp1144
Rp1145
(dp1146
g6
I6
sg7
I0
sg8
I0
sg9
S'/usr/sbin/synaptic'
p1147
sg11
I0
sg12
I0
ssg1
(S'\x07\xda\x0b\x08\x0b#\x01\x00\x00\x00'
p1148
tp1149
Rp1150
(dp1151
g6
I0
sg7
I0
sg8
I0
sg9
S'apt-get install -f -y'
p1152
sg11
I0
sg12
I0
ssg1
(S'\x07\xda\x0b\x1e\x01*\t\x00\x00\x00'
p1153
tp1154
Rp1155
(dp1156
g6
I0
sg7
I0
sg8
I0
sg9
S'apt-get install -y linux-headers-2.6.36-1.dmz.3-liquorix-686 linux-image-2.6.36-1.dmz.3-liquorix-686'
p1157
sg11
I0
sg12
I0
ssg1
(S'\x07\xda\x0b\x08\x0c\x1d3\x00\x00\x00'
p1158
tp1159
Rp1160
(dp1161
g6
I0
sg7
I0
sg8
I1
sg9
S'/usr/sbin/synaptic'
p1162
sg11
I0
sg12
I0
ssg1
(S'\x07\xda\t\x05\x13\x1c\x01\x00\x00\x00'
p1163
tp1164
Rp1165
(dp1166
g6
I172
sg7
I0
sg8
I2
sg9
S'/usr/sbin/synaptic'
p1167
sg11
I2
sg12
I0
ssg1
(S'\x07\xdb\x01\x01\x05*\x16\x00\x00\x00'
p1168
tp1169
Rp1170
(dp1171
g6
I18
sg7
I0
sg8
I0
sg9
S'/usr/sbin/synaptic'
p1172
sg11
I0
sg12
I0
ssg1
(S'\x07\xda\n\x1f\x08$\x1e\x00\x00\x00'
p1173
tp1174
Rp1175
(dp1176
g6
I18
sg7
I0
sg8
I0
sg9
S'/usr/sbin/synaptic'
p1177
sg11
I0
sg12
I0
ssg1
(S'\x07\xda\x0b\x08\x0b6%\x00\x00\x00'
p1178
tp1179
Rp1180
(dp1181
g6
I0
sg7
I0
sg8
I0
sg9
S'/usr/sbin/synaptic'
p1182
sg11
I3
sg12
I0
ssg1
(S'\x07\xda\x0c\r\x16\x17\x1d\x00\x00\x00'
p1183
tp1184
Rp1185
(dp1186
g6
I4
sg7
I0
sg8
I0
sg9
S'/usr/sbin/synaptic'
p1187
sg11
I4
sg12
I0
ssg1
(S'\x07\xda\x0c\x03\x02#(\x00\x00\x00'
p1188
tp1189
Rp1190
(dp1191
g6
I58
sg7
I0
sg8
I0
sg9
S'/usr/sbin/synaptic'
p1192
sg11
I0
sg12
I0
ssg1
(S'\x07\xda\t\x19\x0f\r\x0b\x00\x00\x00'
p1193
tp1194
Rp1195
(dp1196
g6
I0
sg7
I0
sg8
I1
sg9
S'/usr/sbin/synaptic'
p1197
sg11
I0
sg12
I0
ssg1
(S'\x07\xda\n\x1c\x16#\x11\x00\x00\x00'
p1198
tp1199
Rp1200
(dp1201
g6
I0
sg7
I0
sg8
I0
sg9
S'/usr/sbin/synaptic'
p1202
sg11
I0
sg12
I0
ssg1
(S'\x07\xda\n\x05\t\x12\x1b\x00\x00\x00'
p1203
tp1204
Rp1205
(dp1206
g6
I12
sg7
I0
sg8
I0
sg9
S'/usr/sbin/synaptic'
p1207
sg11
I0
sg12
I0
ssg1
(S'\x07\xda\x0c\x0e\x08 \x04\x00\x00\x00'
p1208
tp1209
Rp1210
(dp1211
g6
I0
sg7
I1
sg8
I0
sg9
S'apt-get build-dep amarok'
p1212
sg11
I90
sg12
I0
ssg1
(S'\x07\xda\t\x08\x0e85\x00\x00\x00'
p1213
tp1214
Rp1215
(dp1216
g6
I0
sg7
I0
sg8
I2
sg9
S'/usr/sbin/synaptic'
p1217
sg11
I0
sg12
I0
ssg1
(S'\x07\xda\n\x0b\x06*\x10\x00\x00\x00'
p1218
tp1219
Rp1220
(dp1221
g6
I6
sg7
I0
sg8
I0
sg9
S'/usr/sbin/synaptic'
p1222
sg11
I0
sg12
I0
ssg1
(S'\x07\xda\n\x19\x00\x1b\x11\x00\x00\x00'
p1223
tp1224
Rp1225
(dp1226
g6
I0
sg7
I0
sg8
I2
sg9
S'/usr/sbin/synaptic'
p1227
sg11
I0
sg12
I0
ssg1
(S'\x07\xda\t\x12\t\x1a/\x00\x00\x00'
p1228
tp1229
Rp1230
(dp1231
g6
I8
sg7
I0
sg8
I0
sg9
S'/usr/sbin/synaptic'
p1232
sg11
I0
sg12
I0
ssg1
(S'\x07\xda\t\x15\n\x17%\x00\x00\x00'
p1233
tp1234
Rp1235
(dp1236
g6
I2
sg7
I0
sg8
I0
sg9
S'/usr/sbin/synaptic'
p1237
sg11
I0
sg12
I0
ssg1
(S'\x07\xdb\x01\x05\x0f\x1a\x0b\x00\x00\x00'
p1238
tp1239
Rp1240
(dp1241
g6
I6
sg7
I0
sg8
I0
sg9
S'/usr/sbin/synaptic'
p1242
sg11
I0
sg12
I0
ssg1
(S"\x07\xda\x0b\x11\x01\x0e'\x00\x00\x00"
p1243
tp1244
Rp1245
(dp1246
g6
I0
sg7
I0
sg8
I0
sg9
S'apt-get install -f -y'
p1247
sg11
I0
sg12
I0
ssg1
(S'\x07\xda\n\x11\x01\x1f\x05\x00\x00\x00'
p1248
tp1249
Rp1250
(dp1251
g6
I0
sg7
I0
sg8
I2
sg9
S'/usr/sbin/synaptic'
p1252
sg11
I0
sg12
I0
ssg1
(S'\x07\xda\n\x04\x11\x1f"\x00\x00\x00'
p1253
tp1254
Rp1255
(dp1256
g6
I0
sg7
I0
sg8
I0
sg9
S'/usr/sbin/synaptic'
p1257
sg11
I1
sg12
I0
ssg1
(S"\x07\xda\x0b\x07\x10'.\x00\x00\x00"
p1258
tp1259
Rp1260
(dp1261
g6
I12
sg7
I0
sg8
I0
sg9
S'/usr/sbin/synaptic'
p1262
sg11
I0
sg12
I0
ssg1
(S'\x07\xda\x0b\x15\x077\x01\x00\x00\x00'
p1263
tp1264
Rp1265
(dp1266
g6
I2
sg7
I0
sg8
I0
sg9
S'/usr/sbin/synaptic'
p1267
sg11
I0
sg12
I0
ssg1
(S'\x07\xda\n\x14\x0c\x1e\x0c\x00\x00\x00'
p1268
tp1269
Rp1270
(dp1271
g6
I2
sg7
I0
sg8
I0
sg9
S'/usr/sbin/synaptic'
p1272
sg11
I0
sg12
I0
ssg1
(S'\x07\xda\n\x1f\x00\x16,\x00\x00\x00'
p1273
tp1274
Rp1275
(dp1276
g6
I4
sg7
I0
sg8
I0
sg9
S'/usr/sbin/synaptic'
p1277
sg11
I4
sg12
I0
ssg1
(S'\x07\xda\n\x17\x15-\x18\x00\x00\x00'
p1278
tp1279
Rp1280
(dp1281
g6
I24
sg7
I0
sg8
I0
sg9
S'/usr/sbin/synaptic'
p1282
sg11
I4
sg12
I0
ssg1
(S'\x07\xda\x0b\x0e\x08\x10+\x00\x00\x00'
p1283
tp1284
Rp1285
(dp1286
g6
I4
sg7
I0
sg8
I0
sg9
S'/usr/sbin/synaptic'
p1287
sg11
I0
sg12
I0
ssg1
(S'\x07\xda\n\x03\x050\x06\x00\x00\x00'
p1288
tp1289
Rp1290
(dp1291
g6
I20
sg7
I0
sg8
I0
sg9
S'/usr/sbin/synaptic'
p1292
sg11
I0
sg12
I0
ssg1
(S'\x07\xda\t\x07\x08\x1d\x02\x00\x00\x00'
p1293
tp1294
Rp1295
(dp1296
g6
I82
sg7
I0
sg8
I0
sg9
S'/usr/sbin/synaptic'
p1297
sg11
I0
sg12
I0
ssg1
(S'\x07\xda\x0b\x07\x17\r\x14\x00\x00\x00'
p1298
tp1299
Rp1300
(dp1301
g6
I4
sg7
I0
sg8
I0
sg9
S'/usr/sbin/synaptic'
p1302
sg11
I0
sg12
I0
ssg1
(S'\x07\xdb\x01\x18\x140\x02\x00\x00\x00'
p1303
tp1304
Rp1305
(dp1306
g6
I0
sg7
I0
sg8
I0
sg9
S'/usr/sbin/synaptic'
p1307
sg11
I1
sg12
I0
ssg1
(S'\x07\xda\t\x11\x01\x16\x19\x00\x00\x00'
p1308
tp1309
Rp1310
(dp1311
g6
I0
sg7
I0
sg8
I2
sg9
S'/usr/sbin/synaptic'
p1312
sg11
I0
sg12
I0
ssg1
(S'\x07\xda\n\x11\x07/\x06\x00\x00\x00'
p1313
tp1314
Rp1315
(dp1316
g6
I6
sg7
I0
sg8
I0
sg9
S'/usr/sbin/synaptic'
p1317
sg11
I0
sg12
I0
ssg1
(S"\x07\xda\x0c\x11\x0e'\x19\x00\x00\x00"
p1318
tp1319
Rp1320
(dp1321
g6
I4
sg7
I0
sg8
I0
sg9
S'/usr/sbin/synaptic'
p1322
sg11
I0
sg12
I0
ssg1
(S'\x07\xda\x0b\x17\n\x03#\x00\x00\x00'
p1323
tp1324
Rp1325
(dp1326
g6
I0
sg7
I0
sg8
I0
sg9
S'apt-get install -y linux-headers-2.6.36-1.dmz.1-liquorix-686 linux-image-2.6.36-1.dmz.1-liquorix-686'
p1327
sg11
I0
sg12
I0
ssg1
(S'\x07\xda\x0c\x1d\x015\x1a\x00\x00\x00'
p1328
tp1329
Rp1330
(dp1331
g6
I2
sg7
I0
sg8
I0
sg9
S'/usr/sbin/synaptic'
p1332
sg11
I0
sg12
I0
ssg1
(S'\x07\xdb\x01\t\x07\x15(\x00\x00\x00'
p1333
tp1334
Rp1335
(dp1336
g6
I4
sg7
I0
sg8
I0
sg9
S'/usr/sbin/synaptic'
p1337
sg11
I4
sg12
I0
ssg1
(S'\x07\xda\x0b\x04\x12\x08\x0b\x00\x00\x00'
p1338
tp1339
Rp1340
(dp1341
g6
I4
sg7
I0
sg8
I0
sg9
S'/usr/sbin/synaptic'
p1342
sg11
I0
sg12
I0
ssg1
(S'\x07\xdb\x01\x18\x141&\x00\x00\x00'
p1343
tp1344
Rp1345
(dp1346
g6
I0
sg7
I0
sg8
I0
sg9
S'/usr/sbin/synaptic'
p1347
sg11
I5
sg12
I0
ssg1
(S'\x07\xda\n\r\x11; \x00\x00\x00'
p1348
tp1349
Rp1350
(dp1351
g6
I4
sg7
I0
sg8
I0
sg9
S'/usr/sbin/synaptic'
p1352
sg11
I0
sg12
I0
ssg1
(S'\x07\xda\t\x02\t%9\x00\x00\x00'
p1353
tp1354
Rp1355
(dp1356
g6
I0
sg7
I0
sg8
I0
sg9
S'/usr/sbin/synaptic'
p1357
sg11
I0
sg12
I0
ssg1
(S'\x07\xda\x0b\x16\x08&\x15\x00\x00\x00'
p1358
tp1359
Rp1360
(dp1361
g6
I0
sg7
I0
sg8
I0
sg9
S'apt-get install -y linux-headers-2.6.36-0.dmz.15-liquorix-686 linux-image-2.6.36-0.dmz.15-liquorix-686'
p1362
sg11
I0
sg12
I0
ssg1
(S'\x07\xda\x0b\x12\x10*9\x00\x00\x00'
p1363
tp1364
Rp1365
(dp1366
g6
I4
sg7
I0
sg8
I0
sg9
S'/usr/sbin/synaptic'
p1367
sg11
I0
sg12
I0
ssg1
(S'\x07\xda\x0b\x01\x0b\x11\x10\x00\x00\x00'
p1368
tp1369
Rp1370
(dp1371
g6
I0
sg7
I0
sg8
I2
sg9
S'/usr/sbin/synaptic'
p1372
sg11
I0
sg12
I0
ssg1
(S'\x07\xdb\x01\x0f\n\x17\t\x00\x00\x00'
p1373
tp1374
Rp1375
(dp1376
g6
I0
sg7
I0
sg8
I1
sg9
S'/usr/sbin/synaptic'
p1377
sg11
I0
sg12
I0
ssg1
(S'\x07\xda\x0c\n\n\x0b \x00\x00\x00'
p1378
tp1379
Rp1380
(dp1381
g6
I0
sg7
I0
sg8
I0
sg9
S'apt-get install -f -y'
p1382
sg11
I0
sg12
I0
ssg1
(S'\x07\xda\x0b\x12\n\x00\x01\x00\x00\x00'
p1383
tp1384
Rp1385
(dp1386
g6
I0
sg7
I0
sg8
I0
sg9
S'apt-get install -f -y'
p1387
sg11
I0
sg12
I0
ssg1
(S"\x07\xda\x0c\x06\t\r'\x00\x00\x00"
p1388
tp1389
Rp1390
(dp1391
g6
I0
sg7
I0
sg8
I0
sg9
S'apt-get install -f -y'
p1392
sg11
I0
sg12
I0
ssg1
(S'\x07\xda\t\x16\r\x10\x1d\x00\x00\x00'
p1393
tp1394
Rp1395
(dp1396
g6
I2
sg7
I0
sg8
I0
sg9
S'/usr/sbin/synaptic'
p1397
sg11
I0
sg12
I0
ssg1
(S'\x07\xda\n\x19\t+\x1a\x00\x00\x00'
p1398
tp1399
Rp1400
(dp1401
g6
I2
sg7
I0
sg8
I0
sg9
S'/usr/sbin/synaptic'
p1402
sg11
I0
sg12
I0
ssg1
(S'\x07\xda\x0b\x05\x107\x06\x00\x00\x00'
p1403
tp1404
Rp1405
(dp1406
g6
I10
sg7
I0
sg8
I0
sg9
S'/usr/sbin/synaptic'
p1407
sg11
I0
sg12
I0
ssg1
(S'\x07\xda\x0b\x16\x083*\x00\x00\x00'
p1408
tp1409
Rp1410
(dp1411
g6
I0
sg7
I0
sg8
I2
sg9
S'/usr/sbin/synaptic'
p1412
sg11
I0
sg12
I0
ssg1
(S'\x07\xda\t\x12\x0e6\x0c\x00\x00\x00'
p1413
tp1414
Rp1415
(dp1416
g6
I0
sg7
I0
sg8
I1
sg9
S'/usr/sbin/synaptic'
p1417
sg11
I0
sg12
I0
ssg1
(S'\x07\xdb\x01\x0e\x08$-\x00\x00\x00'
p1418
tp1419
Rp1420
(dp1421
g6
I4
sg7
I0
sg8
I0
sg9
S'/usr/sbin/synaptic'
p1422
sg11
I0
sg12
I0
ssg1
(S'\x07\xda\x0c\x0e\x14\x08\x07\x00\x00\x00'
p1423
tp1424
Rp1425
(dp1426
g6
I0
sg7
I0
sg8
I6
sg9
S'/usr/sbin/synaptic'
p1427
sg11
I0
sg12
I0
ssg1
(S'\x07\xda\x0b\x1c\x074:\x00\x00\x00'
p1428
tp1429
Rp1430
(dp1431
g6
I0
sg7
I0
sg8
I0
sg9
S'apt-get install -y linux-headers-2.6.36-1.dmz.2-liquorix-686 linux-image-2.6.36-1.dmz.2-liquorix-686'
p1432
sg11
I0
sg12
I0
ssg1
(S'\x07\xda\x0c\x13\x16\x051\x00\x00\x00'
p1433
tp1434
Rp1435
(dp1436
g6
I22
sg7
I0
sg8
I0
sg9
S'/usr/sbin/synaptic'
p1437
sg11
I0
sg12
I0
ssg1
(S'\x07\xda\n\x1d\x08\x045\x00\x00\x00'
p1438
tp1439
Rp1440
(dp1441
g6
I2
sg7
I0
sg8
I0
sg9
S'/usr/sbin/synaptic'
p1442
sg11
I0
sg12
I0
ssg1
(S'\x07\xda\x0b\x16\x08&\x0e\x00\x00\x00'
p1443
tp1444
Rp1445
(dp1446
g6
I0
sg7
I0
sg8
I0
sg9
S'apt-get install -y firmware-linux initramfs-tools libc6 libc6-dev locales tzdata util-linux'
p1447
sg11
I0
sg12
I0
ssg1
(S'\x07\xda\x0b\x1c\x070;\x00\x00\x00'
p1448
tp1449
Rp1450
(dp1451
g6
I6
sg7
I0
sg8
I0
sg9
S'/usr/sbin/synaptic'
p1452
sg11
I4
sg12
I0
ssg1
(S'\x07\xda\x0c\x0e\t 0\x00\x00\x00'
p1453
tp1454
Rp1455
(dp1456
g6
I0
sg7
I0
sg8
I0
sg9
S'apt-get install -y firmware-linux initramfs-tools libc6 libc6-dev locales tzdata util-linux'
p1457
sg11
I0
sg12
I0
ssg1
(S'\x07\xda\t\x02\x0b\x11;\x00\x00\x00'
p1458
tp1459
Rp1460
(dp1461
g6
I0
sg7
I0
sg8
I0
sg9
S'/usr/sbin/synaptic'
p1462
sg11
I0
sg12
I0
ssg1
(S'\x07\xda\x0b\x14\x01&4\x00\x00\x00'
p1463
tp1464
Rp1465
(dp1466
g6
I16
sg7
I0
sg8
I0
sg9
S'/usr/sbin/synaptic'
p1467
sg11
I0
sg12
I0
ssg1
(S'\x07\xda\x0b\x17\n\x04+\x00\x00\x00'
p1468
tp1469
Rp1470
(dp1471
g6
I0
sg7
I0
sg8
I0
sg9
S'apt-get install -f -y'
p1472
sg11
I0
sg12
I0
ssg1
(S'\x07\xda\t\x08\r\x161\x00\x00\x00'
p1473
tp1474
Rp1475
(dp1476
g6
I0
sg7
I0
sg8
I0
sg9
S'/usr/sbin/synaptic'
p1477
sg11
I7
sg12
I0
ssg1
(S'\x07\xda\x0b\r\n&\x0f\x00\x00\x00'
p1478
tp1479
Rp1480
(dp1481
g6
I8
sg7
I0
sg8
I0
sg9
S'/usr/sbin/synaptic'
p1482
sg11
I0
sg12
I0
ssg1
(S'\x07\xda\t\x19\x137.\x00\x00\x00'
p1483
tp1484
Rp1485
(dp1486
g6
I22
sg7
I0
sg8
I0
sg9
S'/usr/sbin/synaptic'
p1487
sg11
I0
sg12
I0
ssg1
(S'\x07\xdb\x01\x1d\x17$\t\x00\x00\x00'
p1488
tp1489
Rp1490
(dp1491
g6
I4
sg7
I0
sg8
I0
sg9
S'/usr/sbin/synaptic'
p1492
sg11
I0
sg12
I0
ssg1
(S'\x07\xda\x0b\x1e\x01*\x07\x00\x00\x00'
p1493
tp1494
Rp1495
(dp1496
g6
I0
sg7
I0
sg8
I0
sg9
S'apt-get install -f -y'
p1497
sg11
I0
sg12
I0
ssg1
(S'\x07\xda\x0b\x0f\x0b\x100\x00\x00\x00'
p1498
tp1499
Rp1500
(dp1501
g6
I0
sg7
I0
sg8
I0
sg9
S'apt-get install -y firmware-linux initramfs-tools libc6 libc6-dev locales tzdata util-linux'
p1502
sg11
I0
sg12
I0
ssg1
(S'\x07\xda\x0b\x17\t8:\x00\x00\x00'
p1503
tp1504
Rp1505
(dp1506
g6
I12
sg7
I0
sg8
I0
sg9
S'/usr/sbin/synaptic'
p1507
sg11
I4
sg12
I0
ssg1
(S'\x07\xda\x0b\x0f\x0b\x10,\x00\x00\x00'
p1508
tp1509
Rp1510
(dp1511
g6
I0
sg7
I0
sg8
I0
sg9
S'apt-get install -f -y'
p1512
sg11
I0
sg12
I0
ssg1
(S'\x07\xda\x08\x1c\r2\r\x00\x00\x00'
p1513
tp1514
Rp1515
(dp1516
g6
I0
sg7
I0
sg8
I2
sg9
S'/usr/sbin/synaptic'
p1517
sg11
I0
sg12
I0
ssg1
(S'\x07\xda\n\x1c\t5!\x00\x00\x00'
p1518
tp1519
Rp1520
(dp1521
g6
I0
sg7
I0
sg8
I0
sg9
S'/usr/sbin/synaptic'
p1522
sg11
I1
sg12
I0
ssg1
(S'\x07\xda\x0c\n\n\x0b\x1e\x00\x00\x00'
p1523
tp1524
Rp1525
(dp1526
g6
I0
sg7
I0
sg8
I0
sg9
S'apt-get install -y firmware-linux initramfs-tools libc6 libc6-dev locales tzdata util-linux'
p1527
sg11
I0
sg12
I0
ssg1
(S'\x07\xda\x0c\x1c\x10\x0f\x13\x00\x00\x00'
p1528
tp1529
Rp1530
(dp1531
g6
I36
sg7
I0
sg8
I0
sg9
S'/usr/sbin/synaptic'
p1532
sg11
I0
sg12
I0
ssg1
(S'\x07\xda\x08\x1f\x01\x01+\x00\x00\x00'
p1533
tp1534
Rp1535
(dp1536
g6
I4
sg7
I0
sg8
I0
sg9
S'/usr/sbin/synaptic'
p1537
sg11
I0
sg12
I0
ssg1
(S'\x07\xda\x0b\n\x01$*\x00\x00\x00'
p1538
tp1539
Rp1540
(dp1541
g6
I2
sg7
I0
sg8
I0
sg9
S'/usr/sbin/synaptic'
p1542
sg11
I0
sg12
I0
ssg1
(S'\x07\xdb\x01\x18\x140/\x00\x00\x00'
p1543
tp1544
Rp1545
(dp1546
g6
I0
sg7
I0
sg8
I0
sg9
S'/usr/sbin/synaptic'
p1547
sg11
I1
sg12
I0
ssg1
(S'\x07\xda\n\x18\x01\x071\x00\x00\x00'
p1548
tp1549
Rp1550
(dp1551
g6
I0
sg7
I0
sg8
I2
sg9
S'/usr/sbin/synaptic'
p1552
sg11
I0
sg12
I0
ssg1
(S'\x07\xdb\x01\x15\n+:\x00\x00\x00'
p1553
tp1554
Rp1555
(dp1556
g6
I34
sg7
I0
sg8
I0
sg9
S'/usr/sbin/synaptic'
p1557
sg11
I2
sg12
I0
ssg1
(S'\x07\xda\t\x01\x17\x11\x18\x00\x00\x00'
p1558
tp1559
Rp1560
(dp1561
g6
I22
sg7
I0
sg8
I0
sg9
S'/usr/sbin/synaptic'
p1562
sg11
I0
sg12
I0
ssg1
(S'\x07\xda\x0b\x17\n\x03\x1e\x00\x00\x00'
p1563
tp1564
Rp1565
(dp1566
g6
I0
sg7
I0
sg8
I0
sg9
S'apt-get install -y firmware-linux initramfs-tools libc6 libc6-dev locales tzdata util-linux'
p1567
sg11
I0
sg12
I0
ssg1
(S'\x07\xda\x0b\x1e\x01*\x02\x00\x00\x00'
p1568
tp1569
Rp1570
(dp1571
g6
I0
sg7
I0
sg8
I0
sg9
S'apt-get install -f -y'
p1572
sg11
I0
sg12
I0
ssg1
(S'\x07\xda\t\x02\x0c\x0e7\x00\x00\x00'
p1573
tp1574
Rp1575
(dp1576
g6
I0
sg7
I0
sg8
I0
sg9
S'/usr/sbin/synaptic'
p1577
sg11
I0
sg12
I0
ssg1
(S'\x07\xda\x0c\x0f\x02$7\x00\x00\x00'
p1578
tp1579
Rp1580
(dp1581
g6
I0
sg7
I0
sg8
I0
sg9
S'apt-get install -y linux-headers-2.6.36-2.dmz.5-liquorix-686 linux-image-2.6.36-2.dmz.5-liquorix-686'
p1582
sg11
I0
sg12
I0
ssg1
(S'\x07\xdb\x01\x1f\x0e9\x13\x00\x00\x00'
p1583
tp1584
Rp1585
(dp1586
g6
I14
sg7
I0
sg8
I2
sg9
S'/usr/sbin/synaptic'
p1587
sg11
I2
sg12
I0
ssg1
(S'\x07\xda\n\x05\x16.\n\x00\x00\x00'
p1588
tp1589
Rp1590
(dp1591
g6
I14
sg7
I0
sg8
I0
sg9
S'/usr/sbin/synaptic'
p1592
sg11
I0
sg12
I0
ssg1
(S'\x07\xdb\x01\x14\r9\x15\x00\x00\x00'
p1593
tp1594
Rp1595
(dp1596
g6
I6
sg7
I0
sg8
I0
sg9
S'/usr/sbin/synaptic'
p1597
sg11
I0
sg12
I0
ssg1
(S'\x07\xda\x0b\x17\x11\x19\x07\x00\x00\x00'
p1598
tp1599
Rp1600
(dp1601
g6
I2
sg7
I0
sg8
I0
sg9
S'/usr/sbin/synaptic'
p1602
sg11
I0
sg12
I0
ssg1
(S'\x07\xda\x0c\x15\x127\x0f\x00\x00\x00'
p1603
tp1604
Rp1605
(dp1606
g6
I12
sg7
I0
sg8
I0
sg9
S'/usr/sbin/synaptic'
p1607
sg11
I0
sg12
I0
ssg1
(S'\x07\xda\x0c\x06\t\r0\x00\x00\x00'
p1608
tp1609
Rp1610
(dp1611
g6
I0
sg7
I0
sg8
I0
sg9
S'apt-get install -y linux-headers-2.6.36-1.dmz.5-liquorix-686 linux-image-2.6.36-1.dmz.5-liquorix-686'
p1612
sg11
I0
sg12
I0
ssg1
(S'\x07\xda\x0c\x0c\x11\x05\x14\x00\x00\x00'
p1613
tp1614
Rp1615
(dp1616
g6
I24
sg7
I0
sg8
I0
sg9
S'/usr/sbin/synaptic'
p1617
sg11
I2
sg12
I0
ssg1
(S'\x07\xda\x0b\x07\x00/\x15\x00\x00\x00'
p1618
tp1619
Rp1620
(dp1621
g6
I20
sg7
I0
sg8
I0
sg9
S'/usr/sbin/synaptic'
p1622
sg11
I4
sg12
I0
ssg1
(S'\x07\xda\x0b\x01\x0b\x04\x08\x00\x00\x00'
p1623
tp1624
Rp1625
(dp1626
g6
I4
sg7
I0
sg8
I0
sg9
S'/usr/sbin/synaptic'
p1627
sg11
I4
sg12
I0
ssg1
(S'\x07\xda\n\x1d\x16$2\x00\x00\x00'
p1628
tp1629
Rp1630
(dp1631
g6
I6
sg7
I0
sg8
I0
sg9
S'/usr/sbin/synaptic'
p1632
sg11
I0
sg12
I0
ssg1
(S'\x07\xdb\x01\x1b\x13+\x1e\x00\x00\x00'
p1633
tp1634
Rp1635
(dp1636
g6
I40
sg7
I0
sg8
I0
sg9
S'/usr/sbin/synaptic'
p1637
sg11
I0
sg12
I0
ssg1
(S'\x07\xdb\x01\x19\x118\x1f\x00\x00\x00'
p1638
tp1639
Rp1640
(dp1641
g6
I4
sg7
I0
sg8
I0
sg9
S'/usr/sbin/synaptic'
p1642
sg11
I0
sg12
I0
ssg1
(S'\x07\xda\x0b\x17\x14\n(\x00\x00\x00'
p1643
tp1644
Rp1645
(dp1646
g6
I6
sg7
I0
sg8
I0
sg9
S'/usr/sbin/synaptic'
p1647
sg11
I0
sg12
I0
ssg1
(S'\x07\xda\x0b\x13\x02\x0e+\x00\x00\x00'
p1648
tp1649
Rp1650
(dp1651
g6
I0
sg7
I0
sg8
I2
sg9
S'/usr/sbin/synaptic'
p1652
sg11
I0
sg12
I0
ssg1
(S'\x07\xda\x0c\r\t\x10\x05\x00\x00\x00'
p1653
tp1654
Rp1655
(dp1656
g6
I14
sg7
I0
sg8
I0
sg9
S'/usr/sbin/synaptic'
p1657
sg11
I0
sg12
I0
ssg1
(S'\x07\xdb\x01\x0c\x0b\x00/\x00\x00\x00'
p1658
tp1659
Rp1660
(dp1661
g6
I8
sg7
I0
sg8
I0
sg9
S'/usr/sbin/synaptic'
p1662
sg11
I0
sg12
I0
ssg1
(S'\x07\xda\n\x0e\x0790\x00\x00\x00'
p1663
tp1664
Rp1665
(dp1666
g6
I2
sg7
I0
sg8
I0
sg9
S'/usr/sbin/synaptic'
p1667
sg11
I0
sg12
I0
ssg1
(S'\x07\xda\x0b\x15\x01#\x04\x00\x00\x00'
p1668
tp1669
Rp1670
(dp1671
g6
I6
sg7
I0
sg8
I0
sg9
S'/usr/sbin/synaptic'
p1672
sg11
I0
sg12
I0
ssg1
(S'\x07\xda\t\x17\x07\x12\x03\x00\x00\x00'
p1673
tp1674
Rp1675
(dp1676
g6
I10
sg7
I0
sg8
I0
sg9
S'/usr/sbin/synaptic'
p1677
sg11
I0
sg12
I0
ssg1
(S'\x07\xda\t\x15\x0e%\x12\x00\x00\x00'
p1678
tp1679
Rp1680
(dp1681
g6
I0
sg7
I0
sg8
I0
sg9
S'/usr/sbin/synaptic'
p1682
sg11
I1
sg12
I0
ssg1
(S'\x07\xda\x0b\x17\n\x03\x1b\x00\x00\x00'
p1683
tp1684
Rp1685
(dp1686
g6
I0
sg7
I0
sg8
I0
sg9
S'apt-get install -f -y'
p1687
sg11
I0
sg12
I0
ssg1
(S'\x07\xda\x0c\x01\t\x16\x07\x00\x00\x00'
p1688
tp1689
Rp1690
(dp1691
g6
I46
sg7
I0
sg8
I0
sg9
S'/usr/sbin/synaptic'
p1692
sg11
I0
sg12
I0
ssg1
(S'\x07\xda\x0b\r\n+\x10\x00\x00\x00'
p1693
tp1694
Rp1695
(dp1696
g6
I0
sg7
I0
sg8
I0
sg9
S'apt-get -y install build-essential'
p1697
sg11
I0
sg12
I0
ssg1
(S'\x07\xda\n\x05\x0b\x03 \x00\x00\x00'
p1698
tp1699
Rp1700
(dp1701
g6
I0
sg7
I0
sg8
I2
sg9
S'/usr/sbin/synaptic'
p1702
sg11
I1
sg12
I0
ssg1
(S'\x07\xda\x0b\x1e\x01-\x16\x00\x00\x00'
p1703
tp1704
Rp1705
(dp1706
g6
I0
sg7
I0
sg8
I2
sg9
S'/usr/sbin/synaptic'
p1707
sg11
I0
sg12
I0
ssg1
(S'\x07\xda\x0b\x14\x113\x00\x00\x00\x00'
p1708
tp1709
Rp1710
(dp1711
g6
I4
sg7
I0
sg8
I0
sg9
S'/usr/sbin/synaptic'
p1712
sg11
I0
sg12
I0
ssg1
(S'\x07\xda\x0c\x0f\t&)\x00\x00\x00'
p1713
tp1714
Rp1715
(dp1716
g6
I8
sg7
I0
sg8
I0
sg9
S'/usr/sbin/synaptic'
p1717
sg11
I0
sg12
I0
ssg1
(S'\x07\xda\t\x0c\x00\x148\x00\x00\x00'
p1718
tp1719
Rp1720
(dp1721
g6
I32
sg7
I0
sg8
I0
sg9
S'/usr/sbin/synaptic'
p1722
sg11
I0
sg12
I0
ssg1
(S'\x07\xda\x0b\x08\x13;\x04\x00\x00\x00'
p1723
tp1724
Rp1725
(dp1726
g6
I6
sg7
I0
sg8
I0
sg9
S'/usr/sbin/synaptic'
p1727
sg11
I0
sg12
I0
ssg1
(S'\x07\xda\x0b\x0c\x015$\x00\x00\x00'
p1728
tp1729
Rp1730
(dp1731
g6
I0
sg7
I0
sg8
I0
sg9
S'apt-get install -f -y'
p1732
sg11
I0
sg12
I0
ssg1
(S'\x07\xda\x0c\x1f\x16,2\x00\x00\x00'
p1733
tp1734
Rp1735
(dp1736
g6
I4
sg7
I0
sg8
I0
sg9
S'/usr/sbin/synaptic'
p1737
sg11
I4
sg12
I0
ssg1
(S'\x07\xda\t\x18\x13\x0c\x1c\x00\x00\x00'
p1738
tp1739
Rp1740
(dp1741
g6
I10
sg7
I0
sg8
I0
sg9
S'/usr/sbin/synaptic'
p1742
sg11
I0
sg12
I0
ssg1
(S'\x07\xda\n\x11\x13\x1d\x08\x00\x00\x00'
p1743
tp1744
Rp1745
(dp1746
g6
I42
sg7
I0
sg8
I0
sg9
S'/usr/sbin/synaptic'
p1747
sg11
I0
sg12
I0
ssg1
(S'\x07\xdb\x01\x0b\x12\r\x0f\x00\x00\x00'
p1748
tp1749
Rp1750
(dp1751
g6
I10
sg7
I0
sg8
I0
sg9
S'/usr/sbin/synaptic'
p1752
sg11
I0
sg12
I0
ssg1
(S'\x07\xda\n\x1c\x0b\x0b\x16\x00\x00\x00'
p1753
tp1754
Rp1755
(dp1756
g6
I2
sg7
I0
sg8
I0
sg9
S'/usr/sbin/synaptic'
p1757
sg11
I0
sg12
I0
ssg1
(S'\x07\xda\t\x1a\x13\x125\x00\x00\x00'
p1758
tp1759
Rp1760
(dp1761
g6
I96
sg7
I0
sg8
I0
sg9
S'/usr/sbin/synaptic'
p1762
sg11
I0
sg12
I0
ssg1
(S'\x07\xda\x0b\x08\x0c\x1e\x0b\x00\x00\x00'
p1763
tp1764
Rp1765
(dp1766
g6
I0
sg7
I0
sg8
I6
sg9
S'/usr/sbin/synaptic'
p1767
sg11
I0
sg12
I0
ssg1
(S'\x07\xda\x0b\x11\x16.;\x00\x00\x00'
p1768
tp1769
Rp1770
(dp1771
g6
I20
sg7
I0
sg8
I0
sg9
S'/usr/sbin/synaptic'
p1772
sg11
I0
sg12
I0
ssg1
(S'\x07\xda\x0c\x04\x01+\n\x00\x00\x00'
p1773
tp1774
Rp1775
(dp1776
g6
I0
sg7
I0
sg8
I0
sg9
S'apt-get install -y linux-headers-2.6.36-1.dmz.4-liquorix-686 linux-image-2.6.36-1.dmz.4-liquorix-686'
p1777
sg11
I0
sg12
I0
ssg1
(S'\x07\xda\x0c\x11\n!!\x00\x00\x00'
p1778
tp1779
Rp1780
(dp1781
g6
I2
sg7
I0
sg8
I0
sg9
S'/usr/sbin/synaptic'
p1782
sg11
I0
sg12
I0
ssg1
(S'\x07\xda\x0c\x14\t\x05\x10\x00\x00\x00'
p1783
tp1784
Rp1785
(dp1786
g6
I12
sg7
I0
sg8
I0
sg9
S'/usr/sbin/synaptic'
p1787
sg11
I0
sg12
I0
ssg1
(S'\x07\xda\x0b\x08\x0b\n*\x00\x00\x00'
p1788
tp1789
Rp1790
(dp1791
g6
I0
sg7
I0
sg8
I0
sg9
S'/usr/sbin/synaptic'
p1792
sg11
I12
sg12
I0
ssg1
(S'\x07\xda\t\r\x15%%\x00\x00\x00'
p1793
tp1794
Rp1795
(dp1796
g6
I8
sg7
I0
sg8
I0
sg9
S'/usr/sbin/synaptic'
p1797
sg11
I0
sg12
I0
ssg1
(S'\x07\xda\x0b\x08\x0c"\x0f\x00\x00\x00'
p1798
tp1799
Rp1800
(dp1801
g6
I0
sg7
I0
sg8
I2
sg9
S'/usr/sbin/synaptic'
p1802
sg11
I0
sg12
I0
ssg1
(S'\x07\xda\x0b\x08\x0b\x1b!\x00\x00\x00'
p1803
tp1804
Rp1805
(dp1806
g6
I0
sg7
I0
sg8
I0
sg9
S'apt-get dist-upgrade'
p1807
sg11
I0
sg12
I0
ssg1
(S'\x07\xda\n\x14\x0f(\x1a\x00\x00\x00'
p1808
tp1809
Rp1810
(dp1811
g6
I4
sg7
I0
sg8
I0
sg9
S'/usr/sbin/synaptic'
p1812
sg11
I0
sg12
I0
ssg1
(S'\x07\xda\x0b\x1e\x01+\x14\x00\x00\x00'
p1813
tp1814
Rp1815
(dp1816
g6
I2
sg7
I0
sg8
I0
sg9
S'apt-get dist-upgrade'
p1817
sg11
I0
sg12
I0
ssg1
(S'\x07\xda\x08\x1d\x13\n\x0b\x00\x00\x00'
p1818
tp1819
Rp1820
(dp1821
g6
I2
sg7
I0
sg8
I0
sg9
S'/usr/sbin/synaptic'
p1822
sg11
I0
sg12
I0
ssg1
(S'\x07\xda\n\x19\x128)\x00\x00\x00'
p1823
tp1824
Rp1825
(dp1826
g6
I2
sg7
I0
sg8
I0
sg9
S'/usr/sbin/synaptic'
p1827
sg11
I0
sg12
I0
ssg1
(S'\x07\xda\t\x1e\n\x01\x1c\x00\x00\x00'
p1828
tp1829
Rp1830
(dp1831
g6
I6
sg7
I0
sg8
I0
sg9
S'/usr/sbin/synaptic'
p1832
sg11
I6
sg12
I0
ssg1
(S'\x07\xda\t\x14\x07;\r\x00\x00\x00'
p1833
tp1834
Rp1835
(dp1836
g6
I16
sg7
I0
sg8
I0
sg9
S'/usr/sbin/synaptic'
p1837
sg11
I0
sg12
I0
ssg1
(S'\x07\xda\x0c\x12\n"*\x00\x00\x00'
p1838
tp1839
Rp1840
(dp1841
g6
I4
sg7
I0
sg8
I0
sg9
S'/usr/sbin/synaptic'
p1842
sg11
I0
sg12
I0
ssg1
(S'\x07\xdb\x01\x1f\x076\x05\x00\x00\x00'
p1843
tp1844
Rp1845
(dp1846
g6
I6
sg7
I0
sg8
I0
sg9
S'/usr/sbin/synaptic'
p1847
sg11
I0
sg12
I0
ssg1
(S'\x07\xdb\x01\x0b\x0b\x125\x00\x00\x00'
p1848
tp1849
Rp1850
(dp1851
g6
I6
sg7
I0
sg8
I0
sg9
S'/usr/sbin/synaptic'
p1852
sg11
I4
sg12
I0
ssg1
(S'\x07\xda\x0b\x11\x01\x0e.\x00\x00\x00'
p1853
tp1854
Rp1855
(dp1856
g6
I0
sg7
I0
sg8
I0
sg9
S'apt-get install -y linux-headers-2.6.36-0.dmz.11-liquorix-686 linux-image-2.6.36-0.dmz.11-liquorix-686'
p1857
sg11
I0
sg12
I0
ssg1
(S'\x07\xda\x0c\x13\t4\x18\x00\x00\x00'
p1858
tp1859
Rp1860
(dp1861
g6
I54
sg7
I0
sg8
I0
sg9
S'/usr/sbin/synaptic'
p1862
sg11
I0
sg12
I0
ssg1
(S'\x07\xda\x0b\x02\x0f\x0c\x1d\x00\x00\x00'
p1863
tp1864
Rp1865
(dp1866
g6
I10
sg7
I0
sg8
I0
sg9
S'/usr/sbin/synaptic'
p1867
sg11
I0
sg12
I0
ssg1
(S'\x07\xdb\x01\x1f\n\x1f\x0c\x00\x00\x00'
p1868
tp1869
Rp1870
(dp1871
g6
I4
sg7
I0
sg8
I0
sg9
S'/usr/sbin/synaptic'
p1872
sg11
I4
sg12
I0
ssg1
(S'\x07\xda\t\x1b\x08\x07:\x00\x00\x00'
p1873
tp1874
Rp1875
(dp1876
g6
I4
sg7
I0
sg8
I0
sg9
S'/usr/sbin/synaptic'
p1877
sg11
I4
sg12
I0
ssg1
(S'\x07\xda\x0c\n\x00\x1c\x11\x00\x00\x00'
p1878
tp1879
Rp1880
(dp1881
g6
I0
sg7
I0
sg8
I0
sg9
S'/usr/sbin/synaptic'
p1882
sg11
I5
sg12
I0
ssg1
(S'\x07\xda\t\x07\x14\x04\r\x00\x00\x00'
p1883
tp1884
Rp1885
(dp1886
g6
I18
sg7
I0
sg8
I0
sg9
S'/usr/sbin/synaptic'
p1887
sg11
I0
sg12
I0
ssg1
(S'\x07\xda\x0c\x12\x111.\x00\x00\x00'
p1888
tp1889
Rp1890
(dp1891
g6
I4
sg7
I0
sg8
I0
sg9
S'/usr/sbin/synaptic'
p1892
sg11
I0
sg12
I0
ssg1
(S'\x07\xda\x0c\n\n\x0b"\x00\x00\x00'
p1893
tp1894
Rp1895
(dp1896
g6
I0
sg7
I0
sg8
I0
sg9
S'apt-get install -y linux-headers-2.6.36-2.dmz.1-liquorix-686 linux-image-2.6.36-2.dmz.1-liquorix-686'
p1897
sg11
I0
sg12
I0
ssg1
(S'\x07\xda\x0b\x13\x02\x07\x08\x00\x00\x00'
p1898
tp1899
Rp1900
(dp1901
g6
I16
sg7
I0
sg8
I0
sg9
S'/usr/sbin/synaptic'
p1902
sg11
I4
sg12
I0
ssg1
(S'\x07\xda\x0b\x0b\x01\x19\x14\x00\x00\x00'
p1903
tp1904
Rp1905
(dp1906
g6
I4
sg7
I0
sg8
I0
sg9
S'/usr/sbin/synaptic'
p1907
sg11
I13
sg12
I0
ssg1
(S'\x07\xda\n\x01\x07%\x05\x00\x00\x00'
p1908
tp1909
Rp1910
(dp1911
g6
I4
sg7
I0
sg8
I2
sg9
S'/usr/sbin/synaptic'
p1912
sg11
I0
sg12
I0
ssg1
(S'\x07\xda\x0c\x0e\t 6\x00\x00\x00'
p1913
tp1914
Rp1915
(dp1916
g6
I0
sg7
I0
sg8
I0
sg9
S'apt-get install -y linux-headers-2.6.36-2.dmz.4-liquorix-686 linux-image-2.6.36-2.dmz.4-liquorix-686'
p1917
sg11
I0
sg12
I0
ssg1
(S'\x07\xdb\x01\x1a\x178\x16\x00\x00\x00'
p1918
tp1919
Rp1920
(dp1921
g6
I4
sg7
I0
sg8
I0
sg9
S'/usr/sbin/synaptic'
p1922
sg11
I4
sg12
I0
ssg1
(S'\x07\xda\x0b\x1c\x11\x10\x04\x00\x00\x00'
p1923
tp1924
Rp1925
(dp1926
g6
I40
sg7
I0
sg8
I0
sg9
S'/usr/sbin/synaptic'
p1927
sg11
I2
sg12
I0
ssg1
(S'\x07\xda\t\x03\x085.\x00\x00\x00'
p1928
tp1929
Rp1930
(dp1931
g6
I12
sg7
I0
sg8
I0
sg9
S'/usr/sbin/synaptic'
p1932
sg11
I0
sg12
I0
ssg1
(S'\x07\xda\x0c\x0c\x01\x01\x04\x00\x00\x00'
p1933
tp1934
Rp1935
(dp1936
g6
I0
sg7
I0
sg8
I0
sg9
S'apt-get install -y linux-headers-2.6.36-2.dmz.2-liquorix-686 linux-image-2.6.36-2.dmz.2-liquorix-686'
p1937
sg11
I0
sg12
I0
ssg1
(S'\x07\xda\x0b\x11\x01\x1c\x08\x00\x00\x00'
p1938
tp1939
Rp1940
(dp1941
g6
I34
sg7
I0
sg8
I2
sg9
S'/usr/sbin/synaptic'
p1942
sg11
I0
sg12
I0
ssg1
(S'\x07\xda\t\x0e\x07%%\x00\x00\x00'
p1943
tp1944
Rp1945
(dp1946
g6
I10
sg7
I0
sg8
I0
sg9
S'/usr/sbin/synaptic'
p1947
sg11
I0
sg12
I0
ssg1
(S'\x07\xda\x0b\x05\x0b\x03\x1e\x00\x00\x00'
p1948
tp1949
Rp1950
(dp1951
g6
I0
sg7
I0
sg8
I0
sg9
S'/usr/sbin/synaptic'
p1952
sg11
I2
sg12
I0
ssg1
(S'\x07\xda\x0c\r\x16\x1d2\x00\x00\x00'
p1953
tp1954
Rp1955
(dp1956
g6
I0
sg7
I0
sg8
I0
sg9
S'/usr/sbin/synaptic'
p1957
sg11
I0
sg12
I0
ssg1
(S'\x07\xda\t\x04\n\x08&\x00\x00\x00'
p1958
tp1959
Rp1960
(dp1961
g6
I2
sg7
I0
sg8
I0
sg9
S'/usr/sbin/synaptic'
p1962
sg11
I0
sg12
I0
ssg1
(S'\x07\xda\t\x15\x0e\x04\x0e\x00\x00\x00'
p1963
tp1964
Rp1965
(dp1966
g6
I0
sg7
I0
sg8
I0
sg9
S'/usr/sbin/synaptic'
p1967
sg11
I0
sg12
I0
ssg1
(S'\x07\xda\t\x15\x0c\x01\x02\x00\x00\x00'
p1968
tp1969
Rp1970
(dp1971
g6
I0
sg7
I0
sg8
I0
sg9
S'/usr/sbin/synaptic'
p1972
sg11
I1
sg12
I0
ssg1
(S'\x07\xdb\x01\x1d\x0b\x043\x00\x00\x00'
p1973
tp1974
Rp1975
(dp1976
g6
I0
sg7
I0
sg8
I2
sg9
S'/usr/sbin/synaptic'
p1977
sg11
I0
sg12
I0
ssg1
(S'\x07\xda\x0c\x0e\x08$\t\x00\x00\x00'
p1978
tp1979
Rp1980
(dp1981
g6
I0
sg7
I0
sg8
I0
sg9
S'/usr/sbin/synaptic'
p1982
sg11
I5
sg12
I0
ssg1
(S'\x07\xdb\x01\x13\x14\x1b\x12\x00\x00\x00'
p1983
tp1984
Rp1985
(dp1986
g6
I16
sg7
I0
sg8
I0
sg9
S'/usr/sbin/synaptic'
p1987
sg11
I0
sg12
I0
ssg1
(S'\x07\xda\x0b\x10\t6\x1d\x00\x00\x00'
p1988
tp1989
Rp1990
(dp1991
g6
I10
sg7
I0
sg8
I0
sg9
S'/usr/sbin/synaptic'
p1992
sg11
I0
sg12
I0
ssg1
(S"\x07\xda\x0c\x06\t\x11'\x00\x00\x00"
p1993
tp1994
Rp1995
(dp1996
g6
I0
sg7
I0
sg8
I2
sg9
S'/usr/sbin/synaptic'
p1997
sg11
I0
sg12
I0
ssg1
(S'\x07\xdb\x01\x17\x1106\x00\x00\x00'
p1998
tp1999
Rp2000
(dp2001
g6
I82
sg7
I0
sg8
I0
sg9
S'/usr/sbin/synaptic'
p2002
sg11
I0
sg12
I0
ssg1
(S'\x07\xda\t\x19\x0f\r"\x00\x00\x00'
p2003
tp2004
Rp2005
(dp2006
g6
I0
sg7
I0
sg8
I6
sg9
S'/usr/sbin/synaptic'
p2007
sg11
I0
sg12
I0
ssg1
(S'\x07\xda\x0b\x17\n\x04.\x00\x00\x00'
p2008
tp2009
Rp2010
(dp2011
g6
I0
sg7
I0
sg8
I0
sg9
S'apt-get install -y linux-headers-2.6.36-1.dmz.1-liquorix-686 linux-image-2.6.36-1.dmz.1-liquorix-686'
p2012
sg11
I0
sg12
I0
ssg1
(S'\x07\xda\x0c\x1c\x04\x11\x05\x00\x00\x00'
p2013
tp2014
Rp2015
(dp2016
g6
I4
sg7
I0
sg8
I0
sg9
S'/usr/sbin/synaptic'
p2017
sg11
I0
sg12
I0
ssg1
(S'\x07\xda\x0b\x1c\x0743\x00\x00\x00'
p2018
tp2019
Rp2020
(dp2021
g6
I0
sg7
I0
sg8
I0
sg9
S'apt-get install -f -y'
p2022
sg11
I0
sg12
I0
ssg1
(S'\x07\xdb\x01\x15\x1428\x00\x00\x00'
p2023
tp2024
Rp2025
(dp2026
g6
I6
sg7
I0
sg8
I1
sg9
S'/usr/sbin/synaptic'
p2027
sg11
I0
sg12
I0
ssg1
(S'\x07\xda\t\x08\x0e37\x00\x00\x00'
p2028
tp2029
Rp2030
(dp2031
g6
I0
sg7
I0
sg8
I0
sg9
S'/usr/sbin/synaptic'
p2032
sg11
I3
sg12
I0
ssg1
(S'\x07\xda\x0c\n\n\x0b\x1b\x00\x00\x00'
p2033
tp2034
Rp2035
(dp2036
g6
I0
sg7
I0
sg8
I0
sg9
S'apt-get install -f -y'
p2037
sg11
I0
sg12
I0
ssg1
(S'\x07\xda\x0c\x04\x01.\x17\x00\x00\x00'
p2038
tp2039
Rp2040
(dp2041
g6
I0
sg7
I0
sg8
I2
sg9
S'/usr/sbin/synaptic'
p2042
sg11
I0
sg12
I0
ssg1
(S'\x07\xda\x0c\x04\x17\x02:\x00\x00\x00'
p2043
tp2044
Rp2045
(dp2046
g6
I4
sg7
I0
sg8
I0
sg9
S'/usr/sbin/synaptic'
p2047
sg11
I0
sg12
I0
ssg1
(S'\x07\xda\x0b\x03\x01\x0f\x02\x00\x00\x00'
p2048
tp2049
Rp2050
(dp2051
g6
I0
sg7
I0
sg8
I2
sg9
S'/usr/sbin/synaptic'
p2052
sg11
I0
sg12
I0
ssg1
(S'\x07\xda\x0c\x0e\t .\x00\x00\x00'
p2053
tp2054
Rp2055
(dp2056
g6
I0
sg7
I0
sg8
I0
sg9
S'apt-get install -f -y'
p2057
sg11
I0
sg12
I0
ssg1
(S'\x07\xda\x0b\x0f\x0b\x102\x00\x00\x00'
p2058
tp2059
Rp2060
(dp2061
g6
I0
sg7
I0
sg8
I0
sg9
S'apt-get install -f -y'
p2062
sg11
I0
sg12
I0
ssg1
(S'\x07\xda\x0c\x0f\x02$0\x00\x00\x00'
p2063
tp2064
Rp2065
(dp2066
g6
I0
sg7
I0
sg8
I0
sg9
S'apt-get install -y firmware-linux initramfs-tools libc6 libc6-dev locales tzdata util-linux'
p2067
sg11
I0
sg12
I0
ssg1
(S'\x07\xda\x0c\x0b\x16\x127\x00\x00\x00'
p2068
tp2069
Rp2070
(dp2071
g6
I12
sg7
I0
sg8
I0
sg9
S'/usr/sbin/synaptic'
p2072
sg11
I4
sg12
I0
ssg1
(S'\x07\xda\x0c\x16\x11$\x0b\x00\x00\x00'
p2073
tp2074
Rp2075
(dp2076
g6
I4
sg7
I0
sg8
I0
sg9
S'/usr/sbin/synaptic'
p2077
sg11
I0
sg12
I0
ssg1
(S'\x07\xda\x0b\x1a\x128:\x00\x00\x00'
p2078
tp2079
Rp2080
(dp2081
g6
I2
sg7
I0
sg8
I0
sg9
S'/usr/sbin/synaptic'
p2082
sg11
I0
sg12
I0
ssg1
(S'\x07\xda\n\t\x14\x12 \x00\x00\x00'
p2083
tp2084
Rp2085
(dp2086
g6
I2
sg7
I0
sg8
I0
sg9
S'/usr/sbin/synaptic'
p2087
sg11
I0
sg12
I0
ssg1
(S'\x07\xda\x0c\x0c\x01\x009\x00\x00\x00'
p2088
tp2089
Rp2090
(dp2091
g6
I0
sg7
I0
sg8
I0
sg9
S'apt-get install -f -y'
p2092
sg11
I0
sg12
I0
ssg1
(S'\x07\xda\x0c\x16\x02\x0b*\x00\x00\x00'
p2093
tp2094
Rp2095
(dp2096
g6
I4
sg7
I0
sg8
I0
sg9
S'/usr/sbin/synaptic'
p2097
sg11
I0
sg12
I0
ssg1
(S'\x07\xda\x0b\n\n\x1b\x1c\x00\x00\x00'
p2098
tp2099
Rp2100
(dp2101
g6
I2
sg7
I0
sg8
I0
sg9
S'/usr/sbin/synaptic'
p2102
sg11
I0
sg12
I0
ssg1
(S"\x07\xda\x0c\x12\x118'\x00\x00\x00"
p2103
tp2104
Rp2105
(dp2106
g6
I4
sg7
I0
sg8
I0
sg9
S'/usr/sbin/synaptic'
p2107
sg11
I0
sg12
I0
ssg1
(S'\x07\xda\x0b\x12\t;7\x00\x00\x00'
p2108
tp2109
Rp2110
(dp2111
g6
I0
sg7
I0
sg8
I0
sg9
S'apt-get install -f -y'
p2112
sg11
I0
sg12
I0
ssg1
(S'\x07\xda\x0c\x0e\x11\x177\x00\x00\x00'
p2113
tp2114
Rp2115
(dp2116
g6
I0
sg7
I0
sg8
I0
sg9
S'/usr/sbin/synaptic'
p2117
sg11
I8
sg12
I0
ssg1
(S'\x07\xda\t\x08\x0e8\x17\x00\x00\x00'
p2118
tp2119
Rp2120
(dp2121
g6
I0
sg7
I0
sg8
I1
sg9
S'/usr/sbin/synaptic'
p2122
sg11
I0
sg12
I0
ssg1
(S'\x07\xda\x0b\x1c\x0746\x00\x00\x00'
p2123
tp2124
Rp2125
(dp2126
g6
I0
sg7
I0
sg8
I0
sg9
S'apt-get install -y firmware-linux initramfs-tools libc6 libc6-dev locales tzdata util-linux'
p2127
sg11
I0
sg12
I0
ssg1
(S'\x07\xdb\x01\x1d\x11\x0b\x12\x00\x00\x00'
p2128
tp2129
Rp2130
(dp2131
g6
I0
sg7
I0
sg8
I46
sg9
S'/usr/sbin/synaptic'
p2132
sg11
I30
sg12
I0
ssg1
(S'\x07\xda\t\x0f\x0f*\x03\x00\x00\x00'
p2133
tp2134
Rp2135
(dp2136
g6
I36
sg7
I0
sg8
I0
sg9
S'/usr/sbin/synaptic'
p2137
sg11
I0
sg12
I0
ssg1
(S"\x07\xda\t\x08\x0e'0\x00\x00\x00"
p2138
tp2139
Rp2140
(dp2141
g6
I0
sg7
I0
sg8
I0
sg9
S'/usr/sbin/synaptic'
p2142
sg11
I1
sg12
I0
ssg1
(S'\x07\xda\n\x13\x12\x0f\x18\x00\x00\x00'
p2143
tp2144
Rp2145
(dp2146
g6
I4
sg7
I0
sg8
I0
sg9
S'/usr/sbin/synaptic'
p2147
sg11
I0
sg12
I0
ssg1
(S'\x07\xdb\x01\x02\x01%#\x00\x00\x00'
p2148
tp2149
Rp2150
(dp2151
g6
I4
sg7
I0
sg8
I0
sg9
S'/usr/sbin/synaptic'
p2152
sg11
I0
sg12
I0
ssg1
(S'\x07\xda\x0b\x05\x160 \x00\x00\x00'
p2153
tp2154
Rp2155
(dp2156
g6
I4
sg7
I0
sg8
I0
sg9
S'/usr/sbin/synaptic'
p2157
sg11
I2
sg12
I0
ssg1
(S'\x07\xda\x0b\x02\x1712\x00\x00\x00'
p2158
tp2159
Rp2160
(dp2161
g6
I10
sg7
I0
sg8
I0
sg9
S'/usr/sbin/synaptic'
p2162
sg11
I4
sg12
I0
ssg1
(S'\x07\xda\n\x16\x08\x134\x00\x00\x00'
p2163
tp2164
Rp2165
(dp2166
g6
I12
sg7
I0
sg8
I0
sg9
S'/usr/sbin/synaptic'
p2167
sg11
I0
sg12
I0
ssg1
(S'\x07\xda\x08\x1b\t/6\x00\x00\x00'
p2168
tp2169
Rp2170
(dp2171
g6
I14
sg7
I0
sg8
I0
sg9
S'/usr/sbin/synaptic'
p2172
sg11
I0
sg12
I0
ssg1
(S'\x07\xda\n\x16\x01\n\x0c\x00\x00\x00'
p2173
tp2174
Rp2175
(dp2176
g6
I0
sg7
I0
sg8
I2
sg9
S'/usr/sbin/synaptic'
p2177
sg11
I0
sg12
I0
ssg1
(S'\x07\xda\x0b\x10\x10\n\x05\x00\x00\x00'
p2178
tp2179
Rp2180
(dp2181
g6
I12
sg7
I0
sg8
I0
sg9
S'/usr/sbin/synaptic'
p2182
sg11
I0
sg12
I0
ssg1
(S'\x07\xda\x0c\x07\x12)%\x00\x00\x00'
p2183
tp2184
Rp2185
(dp2186
g6
I12
sg7
I0
sg8
I0
sg9
S'/usr/sbin/synaptic'
p2187
sg11
I0
sg12
I0
ssg1
(S'\x07\xdb\x01\x04\x0f\x10\x1f\x00\x00\x00'
p2188
tp2189
Rp2190
(dp2191
g6
I32
sg7
I0
sg8
I0
sg9
S'/usr/sbin/synaptic'
p2192
sg11
I0
sg12
I0
ssg1
(S'\x07\xda\n\x05\n(!\x00\x00\x00'
p2193
tp2194
Rp2195
(dp2196
g6
I0
sg7
I0
sg8
I0
sg9
S'/usr/sbin/synaptic'
p2197
sg11
I1
sg12
I0
ssg1
(S'\x07\xdb\x01\x01\x05(\x11\x00\x00\x00'
p2198
tp2199
Rp2200
(dp2201
g6
I0
sg7
I0
sg8
I2
sg9
S'/usr/sbin/synaptic'
p2202
sg11
I0
sg12
I0
ssg1
(S'\x07\xda\x0b\x15\x12\x03*\x00\x00\x00'
p2203
tp2204
Rp2205
(dp2206
g6
I10
sg7
I0
sg8
I0
sg9
S'/usr/sbin/synaptic'
p2207
sg11
I0
sg12
I0
ssg1
(S'\x07\xda\x0c\x0e\x08:\x08\x00\x00\x00'
p2208
tp2209
Rp2210
(dp2211
g6
I0
sg7
I0
sg8
I1
sg9
S'/usr/sbin/synaptic'
p2212
sg11
I0
sg12
I0
ssg1
(S'\x07\xda\x0c\x06\t\r)\x00\x00\x00'
p2213
tp2214
Rp2215
(dp2216
g6
I0
sg7
I0
sg8
I0
sg9
S'apt-get install -y firmware-linux initramfs-tools libc6 libc6-dev locales tzdata util-linux'
p2217
sg11
I0
sg12
I0
ssg1
(S'\x07\xdb\x01\x1d\x11\x185\x00\x00\x00'
p2218
tp2219
Rp2220
(dp2221
g6
I0
sg7
I0
sg8
I26
sg9
S'/usr/sbin/synaptic'
p2222
sg11
I5
sg12
I0
ssg1
(S'\x07\xda\x0b\x02\x00\x1a\x1c\x00\x00\x00'
p2223
tp2224
Rp2225
(dp2226
g6
I4
sg7
I0
sg8
I0
sg9
S'/usr/sbin/synaptic'
p2227
sg11
I0
sg12
I0
ssg1
(S'\x07\xda\n\x1c\x0e16\x00\x00\x00'
p2228
tp2229
Rp2230
(dp2231
g6
I0
sg7
I0
sg8
I0
sg9
S'/usr/sbin/synaptic'
p2232
sg11
I1
sg12
I0
ssg1
(S'\x07\xda\x0b\x08\x0c\x16\x0e\x00\x00\x00'
p2233
tp2234
Rp2235
(dp2236
g6
I0
sg7
I0
sg8
I0
sg9
S'apt-get install rcconf'
p2237
sg11
I1
sg12
I0
ssg1
(S'\x07\xda\x0c\x16\t0\n\x00\x00\x00'
p2238
tp2239
Rp2240
(dp2241
g6
I2
sg7
I0
sg8
I0
sg9
S'/usr/sbin/synaptic'
p2242
sg11
I0
sg12
I0
ssg1
(S'\x07\xda\x0b\x08\t&;\x00\x00\x00'
p2243
tp2244
Rp2245
(dp2246
g6
I24
sg7
I0
sg8
I3
sg9
S'/usr/sbin/synaptic'
p2247
sg11
I10
sg12
I0
ssg1
(S'\x07\xda\t\x0f\x17\x18\t\x00\x00\x00'
p2248
tp2249
Rp2250
(dp2251
g6
I6
sg7
I0
sg8
I0
sg9
S'/usr/sbin/synaptic'
p2252
sg11
I4
sg12
I0
ssg1
(S'\x07\xda\x0c\x1b\x12\x01:\x00\x00\x00'
p2253
tp2254
Rp2255
(dp2256
g6
I20
sg7
I0
sg8
I0
sg9
S'/usr/sbin/synaptic'
p2257
sg11
I0
sg12
I0
ssg1
(S'\x07\xda\n\x15\x0c:\x1c\x00\x00\x00'
p2258
tp2259
Rp2260
(dp2261
g6
I40
sg7
I0
sg8
I0
sg9
S'/usr/sbin/synaptic'
p2262
sg11
I0
sg12
I0
ssg1
(S"\x07\xda\t\x1c\x07'0\x00\x00\x00"
p2263
tp2264
Rp2265
(dp2266
g6
I0
sg7
I0
sg8
I2
sg9
S'/usr/sbin/synaptic'
p2267
sg11
I0
sg12
I0
ssg1
(S'\x07\xda\x0b\x17\n\x04&\x00\x00\x00'
p2268
tp2269
Rp2270
(dp2271
g6
I0
sg7
I0
sg8
I0
sg9
S'apt-get install -f -y'
p2272
sg11
I0
sg12
I0
ssg1
(S'\x07\xdb\x01\x1d\x10\x16;\x00\x00\x00'
p2273
tp2274
Rp2275
(dp2276
g6
I0
sg7
I0
sg8
I5
sg9
S'/usr/sbin/synaptic'
p2277
sg11
I2
sg12
I0
ssg1
(S'\x07\xda\x0c\x0e\x08\x06\x1f\x00\x00\x00'
p2278
tp2279
Rp2280
(dp2281
g6
I0
sg7
I0
sg8
I0
sg9
S'/usr/sbin/synaptic'
p2282
sg11
I1
sg12
I0
ssg1
(S'\x07\xda\x0b\x0c\x122\x1a\x00\x00\x00'
p2283
tp2284
Rp2285
(dp2286
g6
I96
sg7
I0
sg8
I0
sg9
S'/usr/sbin/synaptic'
p2287
sg11
I2
sg12
I0
ssg1
(S'\x07\xda\t\x08\r \x0f\x00\x00\x00'
p2288
tp2289
Rp2290
(dp2291
g6
I0
sg7
I0
sg8
I1
sg9
S'/usr/sbin/synaptic'
p2292
sg11
I0
sg12
I0
ssg1
(S'\x07\xda\n\x12\n:\x0c\x00\x00\x00'
p2293
tp2294
Rp2295
(dp2296
g6
I70
sg7
I0
sg8
I1
sg9
S'/usr/sbin/synaptic'
p2297
sg11
I0
sg12
I0
ssg1
(S'\x07\xda\x0b\x11\x01\x0e,\x00\x00\x00'
p2298
tp2299
Rp2300
(dp2301
g6
I0
sg7
I0
sg8
I0
sg9
S'apt-get install -f -y'
p2302
sg11
I0
sg12
I0
ssg1
(S'\x07\xda\x0b\x08\x0c\x00\x13\x00\x00\x00'
p2303
tp2304
Rp2305
(dp2306
g6
I0
sg7
I0
sg8
I0
sg9
S'/usr/sbin/synaptic'
p2307
sg11
I17
sg12
I0
ssg1
(S'\x07\xda\x0c\x12\x157\x07\x00\x00\x00'
p2308
tp2309
Rp2310
(dp2311
g6
I8
sg7
I0
sg8
I0
sg9
S'/usr/sbin/synaptic'
p2312
sg11
I0
sg12
I0
ssg1
(S'\x07\xda\t\x04\x01\x0c/\x00\x00\x00'
p2313
tp2314
Rp2315
(dp2316
g6
I22
sg7
I0
sg8
I0
sg9
S'/usr/sbin/synaptic'
p2317
sg11
I0
sg12
I0
ssg1
(S'\x07\xdb\x01\r\x10\x05&\x00\x00\x00'
p2318
tp2319
Rp2320
(dp2321
g6
I2
sg7
I0
sg8
I0
sg9
S'/usr/sbin/synaptic'
p2322
sg11
I0
sg12
I0
ssg1
(S'\x07\xda\t\x02\t+8\x00\x00\x00'
p2323
tp2324
Rp2325
(dp2326
g6
I0
sg7
I0
sg8
I0
sg9
S'/usr/sbin/synaptic'
p2327
sg11
I0
sg12
I0
ssg1
(S'\x07\xda\x0c\x19\x0b6\x13\x00\x00\x00'
p2328
tp2329
Rp2330
(dp2331
g6
I22
sg7
I0
sg8
I0
sg9
S'/usr/sbin/synaptic'
p2332
sg11
I0
sg12
I0
ssg1
(S"\x07\xdb\x01\x12\x0b'$\x00\x00\x00"
p2333
tp2334
Rp2335
(dp2336
g6
I10
sg7
I0
sg8
I0
sg9
S'/usr/sbin/synaptic'
p2337
sg11
I4
sg12
I0
ssg1
(S'\x07\xda\x0b\x0e\x16\x10"\x00\x00\x00'
p2338
tp2339
Rp2340
(dp2341
g6
I42
sg7
I0
sg8
I0
sg9
S'/usr/sbin/synaptic'
p2342
sg11
I0
sg12
I0
ssg1
(S'\x07\xda\x0b\x08\x0c\x1b$\x00\x00\x00'
p2343
tp2344
Rp2345
(dp2346
g6
I0
sg7
I0
sg8
I1
sg9
S'/usr/sbin/synaptic'
p2347
sg11
I0
sg12
I0
ssg1
(S'\x07\xda\n\x1c\x15\x06;\x00\x00\x00'
p2348
tp2349
Rp2350
(dp2351
g6
I0
sg7
I0
sg8
I0
sg9
S'/usr/sbin/synaptic'
p2352
sg11
I0
sg12
I0
ssg1
(S'\x07\xda\t\x02\t\x1c\x11\x00\x00\x00'
p2353
tp2354
Rp2355
(dp2356
g6
I14
sg7
I0
sg8
I0
sg9
S'/usr/sbin/synaptic'
p2357
sg11
I8
sg12
I0
ssg1
(S'\x07\xda\x0c\x0f\x02!\x11\x00\x00\x00'
p2358
tp2359
Rp2360
(dp2361
g6
I4
sg7
I0
sg8
I0
sg9
S'/usr/sbin/synaptic'
p2362
sg11
I4
sg12
I0
ssg1
(S'\x07\xda\x0c\x0e\n\x1d\x07\x00\x00\x00'
p2363
tp2364
Rp2365
(dp2366
g6
I0
sg7
I0
sg8
I1
sg9
S'/usr/sbin/synaptic'
p2367
sg11
I0
sg12
I0
ssg1
(S'\x07\xda\x0b\x1e\x00!\x04\x00\x00\x00'
p2368
tp2369
Rp2370
(dp2371
g6
I8
sg7
I0
sg8
I0
sg9
S'/usr/sbin/synaptic'
p2372
sg11
I2
sg12
I0
ssg1
(S'\x07\xdb\x01\x10\x13\x05\r\x00\x00\x00'
p2373
tp2374
Rp2375
(dp2376
g6
I10
sg7
I0
sg8
I0
sg9
S'/usr/sbin/synaptic'
p2377
sg11
I0
sg12
I0
ssg1
(S'\x07\xda\x0c\x01\x0e96\x00\x00\x00'
p2378
tp2379
Rp2380
(dp2381
g6
I2
sg7
I0
sg8
I0
sg9
S'/usr/sbin/synaptic'
p2382
sg11
I0
sg12
I0
ssg1
(S'\x07\xda\x0b\x16\x08&\x11\x00\x00\x00'
p2383
tp2384
Rp2385
(dp2386
g6
I0
sg7
I0
sg8
I0
sg9
S'apt-get install -f -y'
p2387
sg11
I0
sg12
I0
ssg1
(S'\x07\xda\n\x07\n\x00\x04\x00\x00\x00'
p2388
tp2389
Rp2390
(dp2391
g6
I20
sg7
I0
sg8
I0
sg9
S'/usr/sbin/synaptic'
p2392
sg11
I4
sg12
I0
ssg1
(S'\x07\xda\x0b\x12\n\x020\x00\x00\x00'
p2393
tp2394
Rp2395
(dp2396
g6
I0
sg7
I0
sg8
I2
sg9
S'/usr/sbin/synaptic'
p2397
sg11
I0
sg12
I0
ssg1
(S'\x07\xda\x0b\x12\n\x00\x05\x00\x00\x00'
p2398
tp2399
Rp2400
(dp2401
g6
I0
sg7
I0
sg8
I0
sg9
S'apt-get install -y linux-headers-2.6.36-0.dmz.13-liquorix-686 linux-image-2.6.36-0.dmz.13-liquorix-686'
p2402
sg11
I0
sg12
I0
ssg1
(S'\x07\xda\x0c\x0c\x01\x01\x02\x00\x00\x00'
p2403
tp2404
Rp2405
(dp2406
g6
I0
sg7
I0
sg8
I0
sg9
S'apt-get install -f -y'
p2407
sg11
I0
sg12
I0
ssg1
(S'\x07\xda\t\x08\t\x03+\x00\x00\x00'
p2408
tp2409
Rp2410
(dp2411
g6
I8
sg7
I0
sg8
I0
sg9
S'/usr/sbin/synaptic'
p2412
sg11
I0
sg12
I0
ss.