(dp0
cdatetime
datetime
p1
(S'\x07\xdb\x01\x14\x14\n0\x00\x00\x00'
p2
tp3
Rp4
(dp5
S'upgrade'
p6
I0
sS'remove'
p7
I1
sS'purge'
p8
I1
sS'action'
p9
S'/usr/sbin/synaptic'
p10
sS'install'
p11
I0
sS'downgrade'
p12
I0
ssg1
(S'\x07\xda\x0c\x0e\x0e2&\x00\x00\x00'
p13
tp14
Rp15
(dp16
g6
I0
sg7
I1
sg8
I0
sg9
I0
sg11
I0
sg12
I0
ssg1
(S'\x07\xdb\x01\x1b\x01\x0c\x1a\x00\x00\x00'
p17
tp18
Rp19
(dp20
g6
I0
sg7
I0
sg8
I0
sg9
S'apt-get install usb-imagewriter'
p21
sg11
I1
sg12
I0
ssg1
(S'\x07\xdb\x01\x14\x12\x00\x18\x00\x00\x00'
p22
tp23
Rp24
(dp25
g6
I10
sg7
I0
sg8
I0
sg9
S'/usr/sbin/synaptic --hide-main-window --non-interactive --progress-str Please wait, this can take some time --finish-str Update is complete --set-selections-file /tmp/tmpDa0RrT'
p26
sg11
I0
sg12
I0
ssg1
(S'\x07\xdb\x01\x18\x07*\x04\x00\x00\x00'
p27
tp28
Rp29
(dp30
g6
I2
sg7
I0
sg8
I0
sg9
I0
sg11
I0
sg12
I0
ssg1
(S'\x07\xdb\x01\x0c\x0c\x1e\x15\x00\x00\x00'
p31
tp32
Rp33
(dp34
g6
I12
sg7
I0
sg8
I0
sg9
I0
sg11
I0
sg12
I0
ssg1
(S'\x07\xdb\x01\x05\x15\n\x0e\x00\x00\x00'
p35
tp36
Rp37
(dp38
g6
I0
sg7
I3
sg8
I0
sg9
S'/usr/sbin/synaptic'
p39
sg11
I0
sg12
I0
ssg1
(S'\x07\xda\x0c\t\x11\x1a\x01\x00\x00\x00'
p40
tp41
Rp42
(dp43
g6
I0
sg7
I0
sg8
I0
sg9
I0
sg11
I0
sg12
I0
ssg1
(S'\x07\xda\x0c\x0e\r;\x06\x00\x00\x00'
p44
tp45
Rp46
(dp47
g6
I6
sg7
I0
sg8
I0
sg9
S'/usr/sbin/synaptic --hide-main-window --non-interactive --progress-str Please wait, this can take some time --finish-str Update is complete --set-selections-file /tmp/tmprcWIv5'
p48
sg11
I0
sg12
I0
ssg1
(S'\x07\xda\x0c\x0c\x15\x0c\x1a\x00\x00\x00'
p49
tp50
Rp51
(dp52
g6
I20
sg7
I0
sg8
I0
sg9
S'/usr/sbin/synaptic --hide-main-window --non-interactive --progress-str Please wait, this can take some time --finish-str Update is complete --set-selections-file /tmp/tmp8GMbAc'
p53
sg11
I1
sg12
I0
ssg1
(S'\x07\xdb\x01\x19\x17\x19%\x00\x00\x00'
p54
tp55
Rp56
(dp57
g6
I0
sg7
I2
sg8
I0
sg9
S'apt-get autoremove'
p58
sg11
I0
sg12
I0
ssg1
(S'\x07\xdb\x01\x0e\x13\x1d\x17\x00\x00\x00'
p59
tp60
Rp61
(dp62
g6
I22
sg7
I0
sg8
I0
sg9
S'/usr/sbin/synaptic --hide-main-window --non-interactive --progress-str Please wait, this can take some time --finish-str Update is complete --set-selections-file /tmp/tmpXfrV8_'
p63
sg11
I1
sg12
I0
ssg1
(S'\x07\xdb\x01\x02\r\x1f\t\x00\x00\x00'
p64
tp65
Rp66
(dp67
g6
I0
sg7
I6
sg8
I0
sg9
I0
sg11
I0
sg12
I0
ssg1
(S'\x07\xda\x0c\x10\x14\x06,\x00\x00\x00'
p68
tp69
Rp70
(dp71
g6
I0
sg7
I0
sg8
I0
sg9
S'/usr/sbin/synaptic'
p72
sg11
I1
sg12
I0
ssg1
(S'\x07\xda\x0c\x1c\x15\x19\x12\x00\x00\x00'
p73
tp74
Rp75
(dp76
g6
I0
sg7
I0
sg8
I0
sg9
S'/usr/sbin/synaptic'
p77
sg11
I4
sg12
I0
ssg1
(S'\x07\xdb\x01\x06\x00\r\x1d\x00\x00\x00'
p78
tp79
Rp80
(dp81
g6
I0
sg7
I0
sg8
I0
sg9
S'/usr/sbin/synaptic'
p82
sg11
I4
sg12
I0
ssg1
(S'\x07\xdb\x01\x02\x0c3\x1e\x00\x00\x00'
p83
tp84
Rp85
(dp86
g6
I0
sg7
I1
sg8
I0
sg9
S'/usr/sbin/synaptic --hide-main-window --non-interactive --parent-window-id 83886117L --progress-str Please wait, this can take some time --finish-str Application removed successfully --set-selections-file /tmp/tmpE12xGy'
p87
sg11
I0
sg12
I0
ssg1
(S'\x07\xda\x0c\x0e\x0e\n\x0e\x00\x00\x00'
p88
tp89
Rp90
(dp91
g6
I0
sg7
I0
sg8
I0
sg9
I0
sg11
I0
sg12
I0
ssg1
(S'\x07\xdb\x01\x04\x17\x0c\x08\x00\x00\x00'
p92
tp93
Rp94
(dp95
g6
I0
sg7
I0
sg8
I0
sg9
I0
sg11
I1
sg12
I0
ssg1
(S'\x07\xda\x0c\x1b\x10\x15\x04\x00\x00\x00'
p96
tp97
Rp98
(dp99
g6
I72
sg7
I0
sg8
I0
sg9
S'/usr/sbin/synaptic --hide-main-window --non-interactive --progress-str Please wait, this can take some time --finish-str Update is complete --set-selections-file /tmp/tmpsggmHi'
p100
sg11
I0
sg12
I0
ssg1
(S'\x07\xda\x0c\t\x11\x1a\x00\x00\x00\x00'
p101
tp102
Rp103
(dp104
g6
I0
sg7
I0
sg8
I0
sg9
I0
sg11
I0
sg12
I0
ssg1
(S'\x07\xdb\x01\x19\x10"\x1b\x00\x00\x00'
p105
tp106
Rp107
(dp108
g6
I84
sg7
I1
sg8
I0
sg9
S'synaptic update'
p109
sg11
I6
sg12
I0
ssg1
(S'\x07\xdb\x01\x02\x0c3\x01\x00\x00\x00'
p110
tp111
Rp112
(dp113
g6
I0
sg7
I1
sg8
I0
sg9
S'/usr/sbin/synaptic --hide-main-window --non-interactive --parent-window-id 83886117L --progress-str Please wait, this can take some time --finish-str Application removed successfully --set-selections-file /tmp/tmpMxRmhM'
p114
sg11
I0
sg12
I0
ssg1
(S'\x07\xdb\x01\x12\t9\x1a\x00\x00\x00'
p115
tp116
Rp117
(dp118
g6
I8
sg7
I0
sg8
I0
sg9
I0
sg11
I0
sg12
I0
ssg1
(S'\x07\xda\x0c\n\x0044\x00\x00\x00'
p119
tp120
Rp121
(dp122
g6
I6
sg7
I0
sg8
I0
sg9
I0
sg11
I0
sg12
I0
ssg1
(S'\x07\xdb\x01\x1a\x1472\x00\x00\x00'
p123
tp124
Rp125
(dp126
g6
I2
sg7
I1
sg8
I0
sg9
S'/usr/sbin/synaptic'
p127
sg11
I0
sg12
I0
ssg1
(S'\x07\xdb\x01\x02\x0c5\x03\x00\x00\x00'
p128
tp129
Rp130
(dp131
g6
I0
sg7
I1
sg8
I0
sg9
S'/usr/sbin/synaptic --hide-main-window --non-interactive --parent-window-id 83886117L --progress-str Please wait, this can take some time --finish-str Application removed successfully --set-selections-file /tmp/tmpHbLmbY'
p132
sg11
I0
sg12
I0
ssg1
(S'\x07\xda\x0c\x1c\x156\x1e\x00\x00\x00'
p133
tp134
Rp135
(dp136
g6
I0
sg7
I0
sg8
I0
sg9
S'/usr/sbin/synaptic'
p137
sg11
I14
sg12
I0
ssg1
(S'\x07\xda\x0c\x1c\x164\x05\x00\x00\x00'
p138
tp139
Rp140
(dp141
g6
I8
sg7
I0
sg8
I0
sg9
S'/usr/sbin/synaptic --hide-main-window --non-interactive --progress-str Please wait, this can take some time --finish-str Update is complete --set-selections-file /tmp/tmpWN5dKO'
p142
sg11
I0
sg12
I0
ssg1
(S'\x07\xdb\x01\x14\x14\x0c7\x00\x00\x00'
p143
tp144
Rp145
(dp146
g6
I0
sg7
I1
sg8
I0
sg9
I0
sg11
I0
sg12
I0
ssg1
(S'\x07\xdb\x01\x05\x0b\x1e\x02\x00\x00\x00'
p147
tp148
Rp149
(dp150
g6
I8
sg7
I0
sg8
I0
sg9
I0
sg11
I0
sg12
I0
ssg1
(S'\x07\xda\x0c\x0e\x0e\x18\x0b\x00\x00\x00'
p151
tp152
Rp153
(dp154
g6
I0
sg7
I1
sg8
I0
sg9
I0
sg11
I0
sg12
I0
ssg1
(S'\x07\xda\x0c\x0e\x0e\x17$\x00\x00\x00'
p155
tp156
Rp157
(dp158
g6
I0
sg7
I1
sg8
I0
sg9
I0
sg11
I0
sg12
I0
ssg1
(S'\x07\xda\x0c\x0e\x0e6\n\x00\x00\x00'
p159
tp160
Rp161
(dp162
g6
I0
sg7
I1
sg8
I0
sg9
I0
sg11
I7
sg12
I0
ssg1
(S"\x07\xda\x0c\x1e\x15'\r\x00\x00\x00"
p163
tp164
Rp165
(dp166
g6
I6
sg7
I0
sg8
I0
sg9
S'/usr/sbin/synaptic --hide-main-window --non-interactive --progress-str Please wait, this can take some time --finish-str Update is complete --set-selections-file /tmp/tmpwpb1ck'
p167
sg11
I0
sg12
I0
ssg1
(S'\x07\xdb\x01\x05\x0b!8\x00\x00\x00'
p168
tp169
Rp170
(dp171
g6
I16
sg7
I0
sg8
I0
sg9
S'/usr/sbin/synaptic --hide-main-window --non-interactive --progress-str Please wait, this can take some time --finish-str Update is complete --set-selections-file /tmp/tmpYAIpIw'
p172
sg11
I0
sg12
I0
ssg1
(S'\x07\xda\x0c\x1f\r\r\x1d\x00\x00\x00'
p173
tp174
Rp175
(dp176
g6
I0
sg7
I3
sg8
I0
sg9
S'/usr/sbin/synaptic'
p177
sg11
I0
sg12
I0
ssg1
(S'\x07\xda\x0c\t\x13\x00\x1a\x00\x00\x00'
p178
tp179
Rp180
(dp181
g6
I256
sg7
I0
sg8
I0
sg9
S'/usr/sbin/synaptic --hide-main-window --non-interactive --progress-str Please wait, this can take some time --finish-str Update is complete --set-selections-file /tmp/tmpKW6Q09'
p182
sg11
I1
sg12
I0
ssg1
(S'\x07\xdb\x01\x07\x14\x0b\x0b\x00\x00\x00'
p183
tp184
Rp185
(dp186
g6
I0
sg7
I0
sg8
I0
sg9
S'/usr/sbin/synaptic'
p187
sg11
I9
sg12
I0
ssg1
(S'\x07\xda\x0c\x10\x14\x10 \x00\x00\x00'
p188
tp189
Rp190
(dp191
g6
I0
sg7
I1
sg8
I0
sg9
S'/usr/sbin/synaptic'
p192
sg11
I1
sg12
I0
ssg1
(S'\x07\xda\x0c\x0e\x0f""\x00\x00\x00'
p193
tp194
Rp195
(dp196
g6
I0
sg7
I3
sg8
I0
sg9
I0
sg11
I3
sg12
I0
ssg1
(S'\x07\xda\x0c\t\x11\x199\x00\x00\x00'
p197
tp198
Rp199
(dp200
g6
I0
sg7
I0
sg8
I0
sg9
I0
sg11
I0
sg12
I0
ssg1
(S'\x07\xdb\x01\x04\x17\x0b\x01\x00\x00\x00'
p201
tp202
Rp203
(dp204
g6
I0
sg7
I3
sg8
I0
sg9
I0
sg11
I0
sg12
I0
ssg1
(S'\x07\xda\x0c\x10\x1363\x00\x00\x00'
p205
tp206
Rp207
(dp208
g6
I8
sg7
I0
sg8
I0
sg9
S'/usr/sbin/synaptic'
p209
sg11
I4
sg12
I0
ssg1
(S'\x07\xdb\x01\x0e\x11*\x0e\x00\x00\x00'
p210
tp211
Rp212
(dp213
g6
I0
sg7
I0
sg8
I0
sg9
S'/usr/sbin/synaptic --hide-main-window --non-interactive --parent-window-id 85983235 --set-selections-file /tmp/tmphHza5q'
p214
sg11
I3
sg12
I0
ssg1
(S'\x07\xdb\x01\x19\x1089\x00\x00\x00'
p215
tp216
Rp217
(dp218
g6
I0
sg7
I1
sg8
I0
sg9
I0
sg11
I0
sg12
I0
ssg1
(S'\x07\xdb\x01\t\n\x1a4\x00\x00\x00'
p219
tp220
Rp221
(dp222
g6
I40
sg7
I0
sg8
I0
sg9
I0
sg11
I0
sg12
I0
ssg1
(S'\x07\xda\x0c\x1f\x0c\x0b*\x00\x00\x00'
p223
tp224
Rp225
(dp226
g6
I0
sg7
I0
sg8
I0
sg9
S'/usr/sbin/synaptic'
p227
sg11
I1
sg12
I0
ssg1
(S'\x07\xdb\x01\x14\x14\x15\x1e\x00\x00\x00'
p228
tp229
Rp230
(dp231
g6
I0
sg7
I0
sg8
I0
sg9
I0
sg11
I1
sg12
I0
ssg1
(S'\x07\xdb\x01\x04\x17\x0b5\x00\x00\x00'
p232
tp233
Rp234
(dp235
g6
I0
sg7
I0
sg8
I0
sg9
I0
sg11
I1
sg12
I0
ssg1
(S'\x07\xdb\x01\t\x12\x17\x14\x00\x00\x00'
p236
tp237
Rp238
(dp239
g6
I48
sg7
I0
sg8
I0
sg9
S'/usr/sbin/synaptic --hide-main-window --non-interactive --progress-str Please wait, this can take some time --finish-str Update is complete --set-selections-file /tmp/tmpLiVC6I'
p240
sg11
I2
sg12
I0
ssg1
(S'\x07\xda\x0c\x0e\x0f\x0f4\x00\x00\x00'
p241
tp242
Rp243
(dp244
g6
I0
sg7
I1
sg8
I0
sg9
S'/usr/sbin/synaptic --hide-main-window --non-interactive --parent-window-id 79691779 --set-selections-file /tmp/tmpKZEEa2'
p245
sg11
I1
sg12
I0
ssg1
(S'\x07\xdb\x01\x1b\x13\t\x1e\x00\x00\x00'
p246
tp247
Rp248
(dp249
g6
I8
sg7
I0
sg8
I0
sg9
S'/usr/sbin/synaptic --hide-main-window --non-interactive --progress-str Please wait, this can take some time --finish-str Update is complete --set-selections-file /tmp/tmptEMsda'
p250
sg11
I0
sg12
I0
ssg1
(S'\x07\xda\x0c\x0e\x15\x00&\x00\x00\x00'
p251
tp252
Rp253
(dp254
g6
I0
sg7
I0
sg8
I0
sg9
S'apt-get install traceroute'
p255
sg11
I1
sg12
I0
ssg1
(S'\x07\xdb\x01\x0e\x176\x0e\x00\x00\x00'
p256
tp257
Rp258
(dp259
g6
I0
sg7
I0
sg8
I0
sg9
S'/usr/sbin/synaptic'
p260
sg11
I23
sg12
I0
ssg1
(S'\x07\xda\x0c\x0f\x16\x07\x11\x00\x00\x00'
p261
tp262
Rp263
(dp264
g6
I16
sg7
I0
sg8
I0
sg9
S'/usr/sbin/synaptic --hide-main-window --non-interactive --progress-str Please wait, this can take some time --finish-str Update is complete --set-selections-file /tmp/tmpWj1PWE'
p265
sg11
I0
sg12
I0
ssg1
(S'\x07\xda\x0c\x1f\x0b7\x16\x00\x00\x00'
p266
tp267
Rp268
(dp269
g6
I2
sg7
I0
sg8
I0
sg9
S'/usr/sbin/synaptic'
p270
sg11
I0
sg12
I0
ssg1
(S'\x07\xda\x0c\x0e\x0f\x1f\x01\x00\x00\x00'
p271
tp272
Rp273
(dp274
g6
I0
sg7
I1
sg8
I0
sg9
I0
sg11
I1
sg12
I0
ssg1
(S'\x07\xda\x0c\x0e\x0e\x1a8\x00\x00\x00'
p275
tp276
Rp277
(dp278
g6
I0
sg7
I0
sg8
I0
sg9
I0
sg11
I1
sg12
I0
ssg1
(S'\x07\xdb\x01\x19\x17&+\x00\x00\x00'
p279
tp280
Rp281
(dp282
g6
I0
sg7
I0
sg8
I0
sg9
S'/usr/sbin/synaptic'
p283
sg11
I1
sg12
I0
ssg1
(S'\x07\xdb\x01\x13\x0c#;\x00\x00\x00'
p284
tp285
Rp286
(dp287
g6
I16
sg7
I0
sg8
I0
sg9
I0
sg11
I0
sg12
I0
ssg1
(S'\x07\xda\x0c\x1f\x0c\x053\x00\x00\x00'
p288
tp289
Rp290
(dp291
g6
I0
sg7
I0
sg8
I1
sg9
S'/usr/sbin/synaptic'
p292
sg11
I0
sg12
I0
ssg1
(S'\x07\xda\x0c\x1f\x0b$\x12\x00\x00\x00'
p293
tp294
Rp295
(dp296
g6
I8
sg7
I0
sg8
I0
sg9
S'/usr/sbin/synaptic --hide-main-window --non-interactive --progress-str Please wait, this can take some time --finish-str Update is complete --set-selections-file /tmp/tmpmUXQJz'
p297
sg11
I0
sg12
I0
ssg1
(S'\x07\xda\x0c\x0e\x0f%\x01\x00\x00\x00'
p298
tp299
Rp300
(dp301
g6
I0
sg7
I0
sg8
I0
sg9
I0
sg11
I5
sg12
I0
ssg1
(S'\x07\xda\x0c\x10\x131\x04\x00\x00\x00'
p302
tp303
Rp304
(dp305
g6
I2
sg7
I0
sg8
I0
sg9
S'/usr/sbin/synaptic --hide-main-window --non-interactive --progress-str Please wait, this can take some time --finish-str Update is complete --set-selections-file /tmp/tmpInMLYm'
p306
sg11
I0
sg12
I0
ssg1
(S'\x07\xdb\x02\x01\n\x07\x03\x00\x00\x00'
p307
tp308
Rp309
(dp310
g6
I4
sg7
I0
sg8
I0
sg9
I0
sg11
I0
sg12
I0
ssg1
(S'\x07\xdb\x01\x02\x0c5,\x00\x00\x00'
p311
tp312
Rp313
(dp314
g6
I0
sg7
I2
sg8
I0
sg9
S'/usr/sbin/synaptic --hide-main-window --non-interactive --parent-window-id 83886117L --progress-str Please wait, this can take some time --finish-str Application removed successfully --set-selections-file /tmp/tmp1uQYjw'
p315
sg11
I0
sg12
I0
ssg1
(S'\x07\xda\x0c\x10\x14\x039\x00\x00\x00'
p316
tp317
Rp318
(dp319
g6
I0
sg7
I5
sg8
I0
sg9
S'/usr/sbin/synaptic'
p320
sg11
I0
sg12
I0
ssg1
(S'\x07\xdb\x01\x10\x14(\x0b\x00\x00\x00'
p321
tp322
Rp323
(dp324
g6
I2
sg7
I0
sg8
I0
sg9
S'/usr/sbin/synaptic --hide-main-window --non-interactive --progress-str Please wait, this can take some time --finish-str Update is complete --set-selections-file /tmp/tmpRECuRN'
p325
sg11
I0
sg12
I0
ssg1
(S'\x07\xdb\x01\x02\x0c6&\x00\x00\x00'
p326
tp327
Rp328
(dp329
g6
I0
sg7
I2
sg8
I0
sg9
S'/usr/sbin/synaptic --hide-main-window --non-interactive --parent-window-id 83886117L --progress-str Please wait, this can take some time --finish-str Application removed successfully --set-selections-file /tmp/tmpouHGTX'
p330
sg11
I0
sg12
I0
ss.