(dp0
cdatetime
datetime
p1
(S'\x07\xdb\x01\x03\x13&\x01\x00\x00\x00'
p2
tp3
Rp4
(dp5
S'upgrade'
p6
I0
sS'remove'
p7
I0
sS'purge'
p8
I0
sS'action'
p9
S'apt-get install --allow-unauthenticated -y --reinstall xserver-xorg-core'
p10
sS'install'
p11
I0
sS'downgrade'
p12
I0
ssg1
(S'\x07\xda\x0b\x07\r:\x00\x00\x00\x00'
p13
tp14
Rp15
(dp16
g6
I0
sg7
I0
sg8
I2
sg9
S'apt-get purge -y linux-headers-2.6.35-7.slh.1-aptosid-686 linux-image-2.6.35-7.slh.1-aptosid-686'
p17
sg11
I0
sg12
I0
ssg1
(S'\x07\xda\n\x07\x07(&\x00\x00\x00'
p18
tp19
Rp20
(dp21
g6
I0
sg7
I0
sg8
I0
sg9
S'apt-get install -y linux-headers-2.6.35-7.slh.1-aptosid-686 linux-image-2.6.35-7.slh.1-aptosid-686'
p22
sg11
I2
sg12
I0
ssg1
(S'\x07\xdb\x01\x1b\x13\x04\x0b\x00\x00\x00'
p23
tp24
Rp25
(dp26
g6
I358
sg7
I0
sg8
I0
sg9
S'apt-get --no-install-recommends dist-upgrade'
p27
sg11
I2
sg12
I0
ssg1
(S'\x07\xda\x0b\x07\r,\x12\x00\x00\x00'
p28
tp29
Rp30
(dp31
g6
I0
sg7
I0
sg8
I0
sg9
S'apt-get install -y linux-headers-2.6.36-0.slh.3-aptosid-686 linux-image-2.6.36-0.slh.3-aptosid-686'
p32
sg11
I2
sg12
I0
ssg1
(S'\x07\xda\t\x19\x16\x02.\x00\x00\x00'
p33
tp34
Rp35
(dp36
g6
I0
sg7
I0
sg8
I3
sg9
S'apt-get purge gnome-media-common gnome-games-data'
p37
sg11
I0
sg12
I0
ssg1
(S'\x07\xdb\x01\x03\x16\x0c5\x00\x00\x00'
p38
tp39
Rp40
(dp41
g6
I0
sg7
I0
sg8
I0
sg9
S'apt-get install xserver-xorg-video-nouveau'
p42
sg11
I1
sg12
I0
ssg1
(S'\x07\xdb\x01\x10\x0e$-\x00\x00\x00'
p43
tp44
Rp45
(dp46
g6
I0
sg7
I0
sg8
I0
sg9
S'apt-get install crawl'
p47
sg11
I3
sg12
I0
ssg1
(S'\x07\xdb\x01\x1f\x17\t\t\x00\x00\x00'
p48
tp49
Rp50
(dp51
g6
I10
sg7
I0
sg8
I0
sg9
S'apt-get -t experimental install systemd'
p52
sg11
I2
sg12
I0
ssg1
(S'\x07\xdb\x01\x07\x17&,\x00\x00\x00'
p53
tp54
Rp55
(dp56
g6
I0
sg7
I0
sg8
I0
sg9
S'apt-get install virtuoso-vad-rdfmappers'
p57
sg11
I1
sg12
I0
ssg1
(S'\x07\xda\t\x0c\x10\x14\x13\x00\x00\x00'
p58
tp59
Rp60
(dp61
g6
I0
sg7
I0
sg8
I8
sg9
S'apt-get purge audacious-plugins libaudclient1 libaudclient2 libaudcore1 libaudid3tag1 libaudid3tag2 libaudutil1 libsad2'
p62
sg11
I0
sg12
I0
ssg1
(S'\x07\xda\t\x0e\x15&:\x00\x00\x00'
p63
tp64
Rp65
(dp66
g6
I14
sg7
I0
sg8
I0
sg9
S'apt-get -t exp-snapshots dist-upgrade'
p67
sg11
I0
sg12
I0
ssg1
(S'\x07\xda\t\x19\x16\x036\x00\x00\x00'
p68
tp69
Rp70
(dp71
g6
I0
sg7
I0
sg8
I4
sg9
S'apt-get purge gnome-cards-data gnome-mime-data gnome-keyring gnome-mplayer'
p72
sg11
I0
sg12
I0
ssg1
(S'\x07\xda\n\t\x08%\n\x00\x00\x00'
p73
tp74
Rp75
(dp76
g6
I2
sg7
I0
sg8
I0
sg9
S'apt-get -t experimental install kaffeine'
p77
sg11
I0
sg12
I0
ssg1
(S'\x07\xdb\x01\x07\x17\x0f.\x00\x00\x00'
p78
tp79
Rp80
(dp81
g6
I2
sg7
I0
sg8
I0
sg9
S'apt-get -t experimental install dbus'
p82
sg11
I0
sg12
I0
ssg1
(S'\x07\xda\t\x0e\x083.\x00\x00\x00'
p83
tp84
Rp85
(dp86
g6
I48
sg7
I0
sg8
I0
sg9
S'apt-get -t exp-snapshots dist-upgrade'
p87
sg11
I0
sg12
I0
ssg1
(S'\x07\xda\t\x16\x14!\x1d\x00\x00\x00'
p88
tp89
Rp90
(dp91
g6
I52
sg7
I0
sg8
I0
sg9
S'apt-get install kdepim'
p92
sg11
I0
sg12
I0
ssg1
(S'\x07\xda\x0b\x1a\x08\x10\x03\x00\x00\x00'
p93
tp94
Rp95
(dp96
g6
I0
sg7
I0
sg8
I0
sg9
S'apt-get install -y linux-headers-2.6.36-1.slh.2-aptosid-686 linux-image-2.6.36-1.slh.2-aptosid-686'
p97
sg11
I2
sg12
I0
ssg1
(S'\x07\xda\n\x15\x151(\x00\x00\x00'
p98
tp99
Rp100
(dp101
g6
I0
sg7
I0
sg8
I0
sg9
S'apt-get install libxml2-dbg'
p102
sg11
I1
sg12
I0
ssg1
(S'\x07\xda\x0b\x0e\x00\x01+\x00\x00\x00'
p103
tp104
Rp105
(dp106
g6
I0
sg7
I1
sg8
I0
sg9
S'apt-get remove php5'
p107
sg11
I0
sg12
I0
ssg1
(S'\x07\xda\t\x19\x16\x00;\x00\x00\x00'
p108
tp109
Rp110
(dp111
g6
I0
sg7
I0
sg8
I4
sg9
S'apt-get purge python-gnome2'
p112
sg11
I0
sg12
I0
ssg1
(S'\x07\xda\t\x19\x15;\x12\x00\x00\x00'
p113
tp114
Rp115
(dp116
g6
I0
sg7
I0
sg8
I1
sg9
S'apt-get purge libqt4-webkit-dbg'
p117
sg11
I0
sg12
I0
ssg1
(S'\x07\xda\t\x10\x16\x05(\x00\x00\x00'
p118
tp119
Rp120
(dp121
g6
I0
sg7
I0
sg8
I0
sg9
S'apt-get install python-profiler'
p122
sg11
I1
sg12
I0
ssg1
(S'\x07\xda\x0b\x1c\n\x0e3\x00\x00\x00'
p123
tp124
Rp125
(dp126
g6
I0
sg7
I0
sg8
I0
sg9
S'apt-get install gnugo'
p127
sg11
I1
sg12
I0
ssg1
(S'\x07\xda\n\x19\x15\x01\x18\x00\x00\x00'
p128
tp129
Rp130
(dp131
g6
I0
sg7
I0
sg8
I0
sg9
S'apt-get install libsasl2-modules-gssapi-mit'
p132
sg11
I1
sg12
I0
ssg1
(S'\x07\xda\n\x15\x15\x13\x05\x00\x00\x00'
p133
tp134
Rp135
(dp136
g6
I0
sg7
I0
sg8
I0
sg9
S'apt-get install libgdbm-dev'
p137
sg11
I1
sg12
I0
ssg1
(S'\x07\xda\t\x0f\x164/\x00\x00\x00'
p138
tp139
Rp140
(dp141
g6
I0
sg7
I0
sg8
I0
sg9
S'apt-get install unoconv'
p142
sg11
I1
sg12
I0
ssg1
(S'\x07\xdb\x01\x1b\x129\x1e\x00\x00\x00'
p143
tp144
Rp145
(dp146
g6
I20
sg7
I0
sg8
I0
sg9
S'apt-get install --no-install-recommends -y firmware-linux initramfs-tools libc6 libc6-dev locales tzdata util-linux'
p147
sg11
I0
sg12
I0
ssg1
(S'\x07\xda\t\x15\x15*\x06\x00\x00\x00'
p148
tp149
Rp150
(dp151
g6
I0
sg7
I1
sg8
I0
sg9
S'apt-get -t exp-snapshot install kdesvn'
p152
sg11
I5
sg12
I0
ssg1
(S'\x07\xda\x0b\x1c\x0b0\x05\x00\x00\x00'
p153
tp154
Rp155
(dp156
g6
I0
sg7
I0
sg8
I0
sg9
S'apt-get install plymouth-themes-fade-in'
p157
sg11
I5
sg12
I0
ssg1
(S'\x07\xda\x0c\x0c\x11\x1a7\x00\x00\x00'
p158
tp159
Rp160
(dp161
g6
I464
sg7
I0
sg8
I0
sg9
S'apt-get dist-upgrade'
p162
sg11
I0
sg12
I0
ssg1
(S'\x07\xda\n\x07\x0780\x00\x00\x00'
p163
tp164
Rp165
(dp166
g6
I598
sg7
I0
sg8
I0
sg9
S'apt-get dist-upgrade'
p167
sg11
I26
sg12
I0
ssg1
(S'\x07\xdb\x01\x07\x16/!\x00\x00\x00'
p168
tp169
Rp170
(dp171
g6
I96
sg7
I0
sg8
I0
sg9
S'apt-get --no-install-recommends dist-upgrade'
p172
sg11
I0
sg12
I0
ssg1
(S'\x07\xdb\x01\x1b\x13\n\x1a\x00\x00\x00'
p173
tp174
Rp175
(dp176
g6
I0
sg7
I0
sg8
I2
sg9
S'apt-get purge -y linux-headers-2.6.36-2.slh.1-aptosid-686 linux-image-2.6.36-2.slh.1-aptosid-686'
p177
sg11
I0
sg12
I0
ssg1
(S'\x07\xda\n\x07\x08,6\x00\x00\x00'
p178
tp179
Rp180
(dp181
g6
I0
sg7
I1
sg8
I0
sg9
S'apt-get -f install'
p182
sg11
I0
sg12
I0
ssg1
(S'\x07\xda\t\x19\x16\x04-\x00\x00\x00'
p183
tp184
Rp185
(dp186
g6
I0
sg7
I0
sg8
I5
sg9
S'apt-get purge libgnomecups1.0-1 libgnomeprint2.2-0 libgnomeprint2.2-data gnome-icon-theme'
p187
sg11
I0
sg12
I0
ssg1
(S'\x07\xda\x0b\x1c\t\n+\x00\x00\x00'
p188
tp189
Rp190
(dp191
g6
I0
sg7
I0
sg8
I0
sg9
S'apt-get install linux-patch-tuxonice'
p192
sg11
I1
sg12
I0
ssg1
(S'\x07\xda\n\x07\x07%7\x00\x00\x00'
p193
tp194
Rp195
(dp196
g6
I2
sg7
I0
sg8
I0
sg9
S'apt-get install -y --allow-unauthenticated aptosid-archive-keyring'
p197
sg11
I0
sg12
I0
ssg1
(S'\x07\xdb\x01\x1f\x17\x12\x01\x00\x00\x00'
p198
tp199
Rp200
(dp201
g6
I0
sg7
I0
sg8
I0
sg9
S'apt-get -t experimental install systemd-gui'
p202
sg11
I1
sg12
I0
ssg1
(S'\x07\xdb\x01\x07\x17\x02\x16\x00\x00\x00'
p203
tp204
Rp205
(dp206
g6
I0
sg7
I0
sg8
I0
sg9
S'apt-get install virtuoso-opensource virtuoso-vad-rdfmappers'
p207
sg11
I1
sg12
I0
ssg1
(S'\x07\xda\x0c\x0c\x11$(\x00\x00\x00'
p208
tp209
Rp210
(dp211
g6
I0
sg7
I0
sg8
I2
sg9
S'apt-get purge -y linux-headers-2.6.36-0.slh.1-aptosid-686 linux-image-2.6.36-0.slh.1-aptosid-686'
p212
sg11
I0
sg12
I0
ssg1
(S'\x07\xda\x0b\x1c\t\t\x0b\x00\x00\x00'
p213
tp214
Rp215
(dp216
g6
I0
sg7
I0
sg8
I1
sg9
S'apt-get purge uswsusp'
p217
sg11
I0
sg12
I0
ssg1
(S'\x07\xda\t\x19\x16\x050\x00\x00\x00'
p218
tp219
Rp220
(dp221
g6
I0
sg7
I0
sg8
I5
sg9
S'apt-get purge libgnome-keyring0'
p222
sg11
I0
sg12
I0
ssg1
(S'\x07\xda\x0b\x0e\x00\x012\x00\x00\x00'
p223
tp224
Rp225
(dp226
g6
I0
sg7
I2
sg8
I0
sg9
S'apt-get remove libapache2-mod-php5'
p227
sg11
I0
sg12
I0
ssg1
(S'\x07\xda\t\x0c\x10\x129\x00\x00\x00'
p228
tp229
Rp230
(dp231
g6
I0
sg7
I0
sg8
I1
sg9
S'apt-get purge audacious'
p232
sg11
I0
sg12
I0
ssg1
(S'\x07\xda\x0c\x0c\x115$\x00\x00\x00'
p233
tp234
Rp235
(dp236
g6
I66
sg7
I0
sg8
I0
sg9
S'apt-get -t experimental install iceweasel libqt4-core'
p237
sg11
I0
sg12
I0
ssg1
(S'\x07\xda\n\x17\x0c\x16\x0e\x00\x00\x00'
p238
tp239
Rp240
(dp241
g6
I0
sg7
I0
sg8
I2
sg9
S'apt-get purge -y linux-headers-2.6.34-0.slh.11-sidux-686 linux-image-2.6.34-0.slh.11-sidux-686'
p242
sg11
I0
sg12
I0
ssg1
(S'\x07\xda\x0b\x1c\t\x10(\x00\x00\x00'
p243
tp244
Rp245
(dp246
g6
I0
sg7
I0
sg8
I1
sg9
S'apt-get purge linux-patch-tuxonice'
p247
sg11
I0
sg12
I0
ssg1
(S'\x07\xda\n\t\x179!\x00\x00\x00'
p248
tp249
Rp250
(dp251
g6
I0
sg7
I1
sg8
I0
sg9
S'apt-get remove python-lxml'
p252
sg11
I0
sg12
I0
ssg1
(S'\x07\xda\x0b\x1a\x08\x13\x14\x00\x00\x00'
p253
tp254
Rp255
(dp256
g6
I574
sg7
I0
sg8
I0
sg9
S'apt-get dist-upgrade'
p257
sg11
I12
sg12
I0
ssg1
(S'\x07\xdb\x01\n\x17\x02\x06\x00\x00\x00'
p258
tp259
Rp260
(dp261
g6
I0
sg7
I0
sg8
I0
sg9
S'apt-get install nodejs'
p262
sg11
I5
sg12
I0
ssg1
(S'\x07\xda\x0b\x07\r*-\x00\x00\x00'
p263
tp264
Rp265
(dp266
g6
I18
sg7
I0
sg8
I0
sg9
S'apt-get install -y firmware-linux initramfs-tools libc6 libc6-dev locales tzdata util-linux'
p267
sg11
I0
sg12
I0
ssg1
(S'\x07\xda\x0b\r\x17-\x01\x00\x00\x00'
p268
tp269
Rp270
(dp271
g6
I0
sg7
I0
sg8
I1
sg9
S'apt-get purge postgresql-8.4'
p272
sg11
I0
sg12
I0
ssg1
(S'\x07\xdb\x01\x14\x16\x18,\x00\x00\x00'
p273
tp274
Rp275
(dp276
g6
I0
sg7
I1
sg8
I0
sg9
S'apt-get install kmymoney'
p277
sg11
I15
sg12
I0
ssg1
(S'\x07\xda\n\x17\x0c\x07*\x00\x00\x00'
p278
tp279
Rp280
(dp281
g6
I484
sg7
I0
sg8
I0
sg9
S'apt-get dist-upgrade'
p282
sg11
I8
sg12
I0
ssg1
(S'\x07\xda\x0b\r\x176\x10\x00\x00\x00'
p283
tp284
Rp285
(dp286
g6
I0
sg7
I0
sg8
I0
sg9
S'apt-get install libreoffice-style-oxygen'
p287
sg11
I1
sg12
I0
ssg1
(S'\x07\xda\x0b\r\x179/\x00\x00\x00'
p288
tp289
Rp290
(dp291
g6
I0
sg7
I0
sg8
I3
sg9
S'apt-get purge postgresql-common'
p292
sg11
I0
sg12
I0
ssg1
(S'\x07\xda\x0b\x1c\x07\x1c\x16\x00\x00\x00'
p293
tp294
Rp295
(dp296
g6
I0
sg7
I0
sg8
I0
sg9
S'apt-get install --reinstall uswsusp'
p297
sg11
I0
sg12
I0
ssg1
(S'\x07\xda\n\x17\x17\x0c4\x00\x00\x00'
p298
tp299
Rp300
(dp301
g6
I4
sg7
I0
sg8
I0
sg9
S'apt-get -t experimental install qtcreator libkwebkit1'
p302
sg11
I0
sg12
I0
ssg1
(S'\x07\xda\t\x16\x15\t\x18\x00\x00\x00'
p303
tp304
Rp305
(dp306
g6
I0
sg7
I0
sg8
I0
sg9
S'apt-get install erlang'
p307
sg11
I83
sg12
I0
ssg1
(S'\x07\xda\n\x1a\x00%\x05\x00\x00\x00'
p308
tp309
Rp310
(dp311
g6
I0
sg7
I0
sg8
I0
sg9
S'apt-get install tmux'
p312
sg11
I3
sg12
I0
ssg1
(S'\x07\xda\t\x0c\r$\x15\x00\x00\x00'
p313
tp314
Rp315
(dp316
g6
I410
sg7
I9
sg8
I0
sg9
S'apt-get -t exp-snapshots dist-upgrade'
p317
sg11
I40
sg12
I0
ssg1
(S'\x07\xdb\x01\x03\x16\x12\x1e\x00\x00\x00'
p318
tp319
Rp320
(dp321
g6
I0
sg7
I0
sg8
I1
sg9
S'apt-get purge xserver-xorg-video-nouveau'
p322
sg11
I0
sg12
I0
ssg1
(S'\x07\xda\t\x19\x15,+\x00\x00\x00'
p323
tp324
Rp325
(dp326
g6
I0
sg7
I0
sg8
I1
sg9
S'apt-get purge google-chrome-unstable'
p327
sg11
I0
sg12
I0
ssg1
(S'\x07\xda\x0b\r\x17,2\x00\x00\x00'
p328
tp329
Rp330
(dp331
g6
I0
sg7
I0
sg8
I1
sg9
S'apt-get purge postgresql-client-8.3'
p332
sg11
I0
sg12
I0
ssg1
(S'\x07\xda\t\x19\x15\x1d\x08\x00\x00\x00'
p333
tp334
Rp335
(dp336
g6
I0
sg7
I0
sg8
I5
sg9
S'apt-get purge libjinglep2p0.3-0 libxsettings-client0 liblash2 libmowgli1 librpm0'
p337
sg11
I0
sg12
I0
ssg1
(S'\x07\xda\n\x07\x08\n)\x00\x00\x00'
p338
tp339
Rp340
(dp341
g6
I0
sg7
I0
sg8
I2
sg9
S'apt-get purge -y linux-headers-2.6.34-0.slh.9-sidux-686 linux-image-2.6.34-0.slh.9-sidux-686'
p342
sg11
I0
sg12
I0
ssg1
(S'\x07\xda\n\x0c\x17\x00\x12\x00\x00\x00'
p343
tp344
Rp345
(dp346
g6
I0
sg7
I0
sg8
I0
sg9
S'apt-get -t experimental install kdevelop'
p347
sg11
I5
sg12
I0
ssg1
(S'\x07\xdb\x01\x03\x13\x10,\x00\x00\x00'
p348
tp349
Rp350
(dp351
g6
I4
sg7
I0
sg8
I0
sg9
S'apt-get install --no-install-recommends -y firmware-linux initramfs-tools libc6 libc6-dev locales tzdata util-linux'
p352
sg11
I0
sg12
I0
ssg1
(S'\x07\xda\x0c\x0c\x119*\x00\x00\x00'
p353
tp354
Rp355
(dp356
g6
I12
sg7
I0
sg8
I0
sg9
S'apt-get -t experimental install libphonon4 libqt4-webkit libqt4-assistant'
p357
sg11
I0
sg12
I0
ssg1
(S'\x07\xda\x0b\r\x17*;\x00\x00\x00'
p358
tp359
Rp360
(dp361
g6
I0
sg7
I0
sg8
I24
sg9
S'apt-get purge openoffice.org-common'
p362
sg11
I0
sg12
I0
ssg1
(S'\x07\xda\x0b\x1c\x0b7\x0c\x00\x00\x00'
p363
tp364
Rp365
(dp366
g6
I0
sg7
I0
sg8
I0
sg9
S'apt-get install virtuoso-opensource'
p367
sg11
I1
sg12
I0
ssg1
(S'\x07\xda\x0b\r\x17:\x19\x00\x00\x00'
p368
tp369
Rp370
(dp371
g6
I0
sg7
I0
sg8
I2
sg9
S'apt-get purge postgresql-client-common'
p372
sg11
I0
sg12
I0
ssg1
(S'\x07\xda\x0b\r\x17-\x12\x00\x00\x00'
p373
tp374
Rp375
(dp376
g6
I0
sg7
I0
sg8
I1
sg9
S'apt-get purge postgresql-client-8.4'
p377
sg11
I0
sg12
I0
ssg1
(S'\x07\xda\n\x15\x15\x139\x00\x00\x00'
p378
tp379
Rp380
(dp381
g6
I0
sg7
I0
sg8
I0
sg9
S'apt-get install tk-dev'
p382
sg11
I7
sg12
I0
ssg1
(S'\x07\xda\n\x17\x0c\x02\x10\x00\x00\x00'
p383
tp384
Rp385
(dp386
g6
I2
sg7
I0
sg8
I0
sg9
S'apt-get install -y firmware-linux initramfs-tools libc6 libc6-dev locales tzdata util-linux'
p387
sg11
I0
sg12
I0
ssg1
(S'\x07\xda\x0b\r\x17;!\x00\x00\x00'
p388
tp389
Rp390
(dp391
g6
I0
sg7
I0
sg8
I2
sg9
S'apt-get purge apache2.2-common'
p392
sg11
I4
sg12
I0
ssg1
(S"\x07\xdb\x01\x03\x13\x1d'\x00\x00\x00"
p393
tp394
Rp395
(dp396
g6
I0
sg7
I0
sg8
I2
sg9
S'apt-get purge -y linux-headers-2.6.36-0.slh.3-aptosid-686 linux-image-2.6.36-0.slh.3-aptosid-686'
p397
sg11
I0
sg12
I0
ssg1
(S'\x07\xda\n\x07\x086\x10\x00\x00\x00'
p398
tp399
Rp400
(dp401
g6
I0
sg7
I0
sg8
I0
sg9
S'apt-get -t experimental install libqtwebkit-dev'
p402
sg11
I1
sg12
I0
ssg1
(S'\x07\xda\t\x19\x16\x04\n\x00\x00\x00'
p403
tp404
Rp405
(dp406
g6
I0
sg7
I0
sg8
I1
sg9
S'apt-get purge libgnome2-common'
p407
sg11
I0
sg12
I0
ssg1
(S'\x07\xda\t\x19\x15\x1d\x0f\x00\x00\x00'
p408
tp409
Rp410
(dp411
g6
I0
sg7
I0
sg8
I2
sg9
S'apt-get purge libjinglexmpp0.3-0 librpmio0'
p412
sg11
I0
sg12
I0
ssg1
(S'\x07\xda\x0b\r\x17;\x16\x00\x00\x00'
p413
tp414
Rp415
(dp416
g6
I0
sg7
I0
sg8
I1
sg9
S'apt-get purge apache2'
p417
sg11
I0
sg12
I0
ssg1
(S'\x07\xda\t\x10\x16\x16+\x00\x00\x00'
p418
tp419
Rp420
(dp421
g6
I0
sg7
I0
sg8
I0
sg9
S'apt-get install python-profiler'
p422
sg11
I1
sg12
I0
ssg1
(S'\x07\xdb\x01\x06\x17\x03;\x00\x00\x00'
p423
tp424
Rp425
(dp426
g6
I60
sg7
I0
sg8
I0
sg9
S'apt-get -t experimental install libqt4-core'
p427
sg11
I0
sg12
I0
ssg1
(S'\x07\xda\n\x17\x16\x058\x00\x00\x00'
p428
tp429
Rp430
(dp431
g6
I52
sg7
I0
sg8
I0
sg9
S'apt-get -t experimental install kdepim'
p432
sg11
I0
sg12
I0
ssg1
(S'\x07\xdb\x01\x1b\x12;\x0f\x00\x00\x00'
p433
tp434
Rp435
(dp436
g6
I0
sg7
I0
sg8
I0
sg9
S'apt-get install --no-install-recommends -y linux-headers-2.6.37-0.slh.11-aptosid-686 linux-image-2.6.37-0.slh.11-aptosid-686'
p437
sg11
I2
sg12
I0
ssg1
(S'\x07\xda\n\x07\x08-\x1b\x00\x00\x00'
p438
tp439
Rp440
(dp441
g6
I0
sg7
I0
sg8
I0
sg9
S'apt-get install update-notifier-kde'
p442
sg11
I3
sg12
I0
ssg1
(S'\x07\xda\x0b\r\x1707\x00\x00\x00'
p443
tp444
Rp445
(dp446
g6
I4
sg7
I0
sg8
I0
sg9
S'apt-get -t experimental install libreoffice'
p447
sg11
I33
sg12
I0
ssg1
(S'\x07\xda\t\x16\x15\x16\x02\x00\x00\x00'
p448
tp449
Rp450
(dp451
g6
I0
sg7
I0
sg8
I0
sg9
S'apt-get install cython'
p452
sg11
I1
sg12
I0
ssg1
(S'\x07\xda\n\r\r\x15\x08\x00\x00\x00'
p453
tp454
Rp455
(dp456
g6
I0
sg7
I0
sg8
I0
sg9
S'apt-get install evince'
p457
sg11
I5
sg12
I0
ssg1
(S'\x07\xda\t\x13\x0e\x116\x00\x00\x00'
p458
tp459
Rp460
(dp461
g6
I10
sg7
I0
sg8
I0
sg9
S'apt-get -t exp-snapshots install kdeadmin kdenetwork'
p462
sg11
I0
sg12
I0
ssg1
(S'\x07\xda\x0b\x0e\x00\x00\x0f\x00\x00\x00'
p463
tp464
Rp465
(dp466
g6
I0
sg7
I0
sg8
I2
sg9
S'apt-get purge apache2.2-common'
p467
sg11
I4
sg12
I0
ssg1
(S'\x07\xda\x0c\t\x16\x14\t\x00\x00\x00'
p468
tp469
Rp470
(dp471
g6
I0
sg7
I0
sg8
I0
sg9
S'apt-get install nvidia-settings'
p472
sg11
I1
sg12
I0
ssg1
(S'\x07\xda\n\x07\x08-\x0c\x00\x00\x00'
p473
tp474
Rp475
(dp476
g6
I0
sg7
I0
sg8
I0
sg9
S'apt-get install kde-standard'
p477
sg11
I5
sg12
I0
ssg1
(S'\x07\xda\t\x13\x0e\x120\x00\x00\x00'
p478
tp479
Rp480
(dp481
g6
I0
sg7
I0
sg8
I0
sg9
S'apt-get -t exp-snapshots install system-config-printer-kde'
p482
sg11
I3
sg12
I0
ssg1
(S'\x07\xda\x0b\x07\r33\x00\x00\x00'
p483
tp484
Rp485
(dp486
g6
I274
sg7
I0
sg8
I0
sg9
S'apt-get dist-upgrade'
p487
sg11
I4
sg12
I0
ssg1
(S'\x07\xda\t\x19\x15-3\x00\x00\x00'
p488
tp489
Rp490
(dp491
g6
I0
sg7
I0
sg8
I1
sg9
S'apt-get purge google-chrome-beta'
p492
sg11
I0
sg12
I0
ssg1
(S'\x07\xda\t\x14\x15,\x17\x00\x00\x00'
p493
tp494
Rp495
(dp496
g6
I238
sg7
I0
sg8
I0
sg9
S'apt-get dist-upgrade'
p497
sg11
I1
sg12
I0
ssg1
(S'\x07\xdb\x01\x03\x13&\t\x00\x00\x00'
p498
tp499
Rp500
(dp501
g6
I0
sg7
I0
sg8
I0
sg9
S'apt-get install --allow-unauthenticated -y --reinstall xserver-xorg-video-nv'
p502
sg11
I0
sg12
I0
ssg1
(S'\x07\xda\t\x19\x15\x1d\x1b\x00\x00\x00'
p503
tp504
Rp505
(dp506
g6
I0
sg7
I0
sg8
I1
sg9
S'apt-get purge libjinglebase0.3-0'
p507
sg11
I0
sg12
I0
ssg1
(S'\x07\xda\t\x10\x16\x0c\x01\x00\x00\x00'
p508
tp509
Rp510
(dp511
g6
I0
sg7
I0
sg8
I1
sg9
S'apt-get purge python-profiler'
p512
sg11
I0
sg12
I0
ssg1
(S'\x07\xda\n\x17\x0c\x03\x1a\x00\x00\x00'
p513
tp514
Rp515
(dp516
g6
I0
sg7
I0
sg8
I0
sg9
S'apt-get install -y linux-headers-2.6.36-0.slh.1-aptosid-686 linux-image-2.6.36-0.slh.1-aptosid-686'
p517
sg11
I2
sg12
I0
ssg1
(S'\x07\xda\n\x1a\x00&\x01\x00\x00\x00'
p518
tp519
Rp520
(dp521
g6
I0
sg7
I0
sg8
I2
sg9
S'apt-get purge update-notifier-common'
p522
sg11
I0
sg12
I0
ssg1
(S'\x07\xda\x0b\x0e\x00\x02\n\x00\x00\x00'
p523
tp524
Rp525
(dp526
g6
I0
sg7
I5
sg8
I0
sg9
S'apt-get remove apache2.2-common'
p527
sg11
I0
sg12
I0
ssg1
(S'\x07\xda\x0b\x1a\x08& \x00\x00\x00'
p528
tp529
Rp530
(dp531
g6
I0
sg7
I0
sg8
I0
sg9
S'apt-get install systemd'
p532
sg11
I1
sg12
I0
ssg1
(S'\x07\xda\x0b\x11\x15\x01!\x00\x00\x00'
p533
tp534
Rp535
(dp536
g6
I52
sg7
I0
sg8
I0
sg9
S'apt-get install kdepim'
p537
sg11
I0
sg12
I0
ssg1
(S'\x07\xdb\x01\x07\x17\x18\x0f\x00\x00\x00'
p538
tp539
Rp540
(dp541
g6
I0
sg7
I0
sg8
I1
sg9
S'apt-get purge virtuoso-vad-rdfmappers'
p542
sg11
I0
sg12
I0
ssg1
(S'\x07\xdb\x01\x03\x13\x12\x02\x00\x00\x00'
p543
tp544
Rp545
(dp546
g6
I0
sg7
I0
sg8
I0
sg9
S'apt-get install --no-install-recommends -y linux-headers-2.6.36-2.slh.3-aptosid-686 linux-image-2.6.36-2.slh.3-aptosid-686'
p547
sg11
I2
sg12
I0
ssg1
(S'\x07\xdb\x01\x07\x16+#\x00\x00\x00'
p548
tp549
Rp550
(dp551
g6
I0
sg7
I0
sg8
I0
sg9
S'apt-get install --no-install-recommends -y linux-headers-2.6.37-0.slh.1-aptosid-686 linux-image-2.6.37-0.slh.1-aptosid-686'
p552
sg11
I2
sg12
I0
ssg1
(S'\x07\xda\t\x19\x16\x02\x05\x00\x00\x00'
p553
tp554
Rp555
(dp556
g6
I0
sg7
I0
sg8
I17
sg9
S'apt-get purge python-gnomekeyring python-gnomeapplet libgnomevfs2-common libgnomevfs2-0 libgnomeui-common libgnomeprintui2.2-common libgnomecanvas2-common libgnome-media0'
p557
sg11
I0
sg12
I0
ssg1
(S'\x07\xda\t\x19\x16\x00\x17\x00\x00\x00'
p558
tp559
Rp560
(dp561
g6
I0
sg7
I0
sg8
I2
sg9
S'apt-get purge libgnome-desktop-2-17'
p562
sg11
I0
sg12
I0
ssg1
(S'\x07\xda\x0b\x1c\t\x13,\x00\x00\x00'
p563
tp564
Rp565
(dp566
g6
I0
sg7
I0
sg8
I0
sg9
S'apt-get install uswsusp'
p567
sg11
I1
sg12
I0
ssg1
(S'\x07\xdb\x01\x07\x164\x08\x00\x00\x00'
p568
tp569
Rp570
(dp571
g6
I0
sg7
I0
sg8
I2
sg9
S'apt-get purge -y linux-headers-2.6.36-1.slh.2-aptosid-686 linux-image-2.6.36-1.slh.2-aptosid-686'
p572
sg11
I0
sg12
I0
ssg1
(S'\x07\xdb\x01\x03\x13\x15,\x00\x00\x00'
p573
tp574
Rp575
(dp576
g6
I276
sg7
I0
sg8
I0
sg9
S'apt-get --no-install-recommends dist-upgrade'
p577
sg11
I2
sg12
I0
ssg1
(S'\x07\xda\x0b\x0e\x00\x02%\x00\x00\x00'
p578
tp579
Rp580
(dp581
g6
I0
sg7
I0
sg8
I2
sg9
S'apt-get purge apache2.2-bin apache2-utils'
p582
sg11
I0
sg12
I0
ssg1
(S'\x07\xda\x0b\r\x17,\x17\x00\x00\x00'
p583
tp584
Rp585
(dp586
g6
I0
sg7
I0
sg8
I3
sg9
S'apt-get purge openoffice.org-l10n-fr openoffice.org-l10n-en-gb openoffice.org-hyphenation-en-us'
p587
sg11
I0
sg12
I0
ssg1
(S'\x07\xda\t\x19\x15\x1c+\x00\x00\x00'
p588
tp589
Rp590
(dp591
g6
I0
sg7
I0
sg8
I43
sg9
S'apt-get purge libmpfr1ldbl libwildmidi0 libbinio1ldbl libmcs1 libkexiv2-8 libparted1.8-12 libtelepathy-glib0 libmatchbox1 libxapian15 libpython3.1 libx264-93 libx264-98 libfluidsynth1 libdns64 libespeak1 libedataserver1.2-11 libboost-thread1.40.0 librpmbuild0 libcdio-cdda0 sidux-keyrings libboost-test1.42.0 sidux-archive-keyring libhippocanvas-1-0 libvoikko1 libgtksourceview1.0-0 kdelibs5 libmarblewidget4 libdes425-3 libavahi-gobject0 libavahi-core6 libsensors3 libva-x11-1 libexiv2-6 libgtkhtml3.14-19 libgirepository1.0-0 libktorrent1 libnautilus-burn4 libboost-serialization1.42.0 libboost-date-time1.40.0 libxklavier16 libdvbpsi5 libfarsight0.1-3 libmodplug0c2'
p592
sg11
I0
sg12
I0
ssg1
(S'\x07\xda\t\x19\x16\x18\x0e\x00\x00\x00'
p593
tp594
Rp595
(dp596
g6
I6
sg7
I0
sg8
I0
sg9
S'apt-get -t experimental install amarok'
p597
sg11
I0
sg12
I0
ssg1
(S'\x07\xda\n\t\x17\x04\x14\x00\x00\x00'
p598
tp599
Rp600
(dp601
g6
I0
sg7
I0
sg8
I0
sg9
S'apt-get install developers-reference'
p602
sg11
I1
sg12
I0
ssg1
(S'\x07\xda\n\x01\x08\t\x13\x00\x00\x00'
p603
tp604
Rp605
(dp606
g6
I0
sg7
I0
sg8
I0
sg9
S'apt-get -t exp-snapshots install kdesudo'
p607
sg11
I3
sg12
I0
ssg1
(S'\x07\xda\t\x19\x16\x03\x16\x00\x00\x00'
p608
tp609
Rp610
(dp611
g6
I0
sg7
I0
sg8
I6
sg9
S'apt-get purge libsoup-gnome2.4-1 libxml++2.6-2'
p612
sg11
I0
sg12
I0
ssg1
(S"\x07\xda\n\x07\x07'\x12\x00\x00\x00"
p613
tp614
Rp615
(dp616
g6
I12
sg7
I0
sg8
I0
sg9
S'apt-get install -y firmware-linux initramfs-tools libc6 libc6-dev locales tzdata util-linux'
p617
sg11
I0
sg12
I0
ssg1
(S'\x07\xdb\x01\x07\x16*\x18\x00\x00\x00'
p618
tp619
Rp620
(dp621
g6
I4
sg7
I0
sg8
I0
sg9
S'apt-get install --no-install-recommends -y firmware-linux initramfs-tools libc6 libc6-dev locales tzdata util-linux'
p622
sg11
I0
sg12
I0
ssg1
(S'\x07\xda\x0c\x0c\x11\x16\x00\x00\x00\x00'
p623
tp624
Rp625
(dp626
g6
I0
sg7
I0
sg8
I0
sg9
S'apt-get install -y linux-headers-2.6.36-2.slh.1-aptosid-686 linux-image-2.6.36-2.slh.1-aptosid-686'
p627
sg11
I2
sg12
I0
ssg1
(S'\x07\xdb\x01\x08\x00\n\x1f\x00\x00\x00'
p628
tp629
Rp630
(dp631
g6
I0
sg7
I0
sg8
I1
sg9
S'apt-get purge uswsusp'
p632
sg11
I0
sg12
I0
ssg1
(S'\x07\xda\t\x0c\x00\x10\x16\x00\x00\x00'
p633
tp634
Rp635
(dp636
g6
I492
sg7
I0
sg8
I0
sg9
S'apt-get dist-upgrade'
p637
sg11
I0
sg12
I0
ssg1
(S'\x07\xda\t\x19\x15\x1d\x15\x00\x00\x00'
p638
tp639
Rp640
(dp641
g6
I0
sg7
I0
sg8
I1
sg9
S'apt-get purge libjinglexmllite0.3-0'
p642
sg11
I0
sg12
I0
ssg1
(S'\x07\xda\n\x07\x08\x14-\x00\x00\x00'
p643
tp644
Rp645
(dp646
g6
I60
sg7
I1
sg8
I0
sg9
S'apt-get -t experimental install libqt4-core'
p647
sg11
I7
sg12
I0
ssg1
(S'\x07\xda\x0b\x1c\x0b*9\x00\x00\x00'
p648
tp649
Rp650
(dp651
g6
I0
sg7
I0
sg8
I0
sg9
S'apt-get install plymouth'
p652
sg11
I1
sg12
I0
ssg1
(S'\x07\xda\x0b\r\x176\x04\x00\x00\x00'
p653
tp654
Rp655
(dp656
g6
I0
sg7
I0
sg8
I0
sg9
S'apt-get install libreoffice-kde'
p657
sg11
I1
sg12
I0
ssg1
(S'\x07\xda\x0b\x0b\x16\x020\x00\x00\x00'
p658
tp659
Rp660
(dp661
g6
I0
sg7
I0
sg8
I0
sg9
S'apt-get install python-lxml'
p662
sg11
I1
sg12
I0
ss.