(dp0
cdatetime
datetime
p1
(S'\x07\xda\x0b\x13\x17\x055\x00\x00\x00'
p2
tp3
Rp4
(dp5
S'upgrade'
p6
I0
sS'remove'
p7
I0
sS'purge'
p8
I0
sS'action'
p9
S'apt-get install finger'
p10
sS'install'
p11
I1
sS'downgrade'
p12
I0
ssg1
(S'\x07\xda\x0b\x1e\x0b5\x02\x00\x00\x00'
p13
tp14
Rp15
(dp16
g6
I0
sg7
I0
sg8
I0
sg9
I0
sg11
I7
sg12
I0
ssg1
(S'\x07\xda\x0c\x03\x00\x1a3\x00\x00\x00'
p17
tp18
Rp19
(dp20
g6
I0
sg7
I0
sg8
I0
sg9
S'apt-get install gksu-polkit libpolkit-agent-1-0'
p21
sg11
I3
sg12
I0
ssg1
(S'\x07\xdb\x01\x1d\x03"\x02\x00\x00\x00'
p22
tp23
Rp24
(dp25
g6
I0
sg7
I0
sg8
I0
sg9
S'apt-get install weka weka-doc'
p26
sg11
I6
sg12
I0
ssg1
(S'\x07\xda\x0c\x10\x11;)\x00\x00\x00'
p27
tp28
Rp29
(dp30
g6
I0
sg7
I0
sg8
I0
sg9
S'apt-get install devscripts'
p31
sg11
I49
sg12
I0
ssg1
(S'\x07\xda\x0b\x0b\x00\x04\x1c\x00\x00\x00'
p32
tp33
Rp34
(dp35
g6
I0
sg7
I0
sg8
I0
sg9
S'apt-get install php5-mysql'
p36
sg11
I1
sg12
I0
ssg1
(S'\x07\xda\x0b\x02\x13*,\x00\x00\x00'
p37
tp38
Rp39
(dp40
g6
I0
sg7
I0
sg8
I0
sg9
S'apt-get install libpolkit-agent-1-dev'
p41
sg11
I3
sg12
I0
ssg1
(S'\x07\xdb\x01\x02\x15\x1f5\x00\x00\x00'
p42
tp43
Rp44
(dp45
g6
I0
sg7
I0
sg8
I0
sg9
S'apt-get install survex'
p46
sg11
I7
sg12
I0
ssg1
(S'\x07\xda\x0b\x02\x11\x07\x1a\x00\x00\x00'
p47
tp48
Rp49
(dp50
g6
I0
sg7
I0
sg8
I0
sg9
S'apt-get install referencer'
p51
sg11
I39
sg12
I0
ssg1
(S'\x07\xdb\x01\x12\x11\x10&\x00\x00\x00'
p52
tp53
Rp54
(dp55
g6
I0
sg7
I0
sg8
I0
sg9
S'apt-get install pidgin-sipe'
p56
sg11
I1
sg12
I0
ssg1
(S'\x07\xdb\x01\x07\x01\x02\t\x00\x00\x00'
p57
tp58
Rp59
(dp60
g6
I0
sg7
I0
sg8
I0
sg9
I0
sg11
I1
sg12
I0
ssg1
(S'\x07\xda\x0c\x06\n\x1f\x1b\x00\x00\x00'
p61
tp62
Rp63
(dp64
g6
I0
sg7
I0
sg8
I0
sg9
S'apt-get install avant-window-navigator'
p65
sg11
I67
sg12
I0
ssg1
(S'\x07\xdb\x01\x02\x15)\n\x00\x00\x00'
p66
tp67
Rp68
(dp69
g6
I0
sg7
I0
sg8
I0
sg9
S'apt-get install texlive-fonts-recommended'
p70
sg11
I5
sg12
I0
ssg1
(S'\x07\xdb\x01\x08\n0\x1e\x00\x00\x00'
p71
tp72
Rp73
(dp74
g6
I0
sg7
I0
sg8
I0
sg9
S'apt-get build-dep telepathy-gabble'
p75
sg11
I3
sg12
I0
ssg1
(S'\x07\xdb\x01\x07\x01\x002\x00\x00\x00'
p76
tp77
Rp78
(dp79
g6
I0
sg7
I0
sg8
I0
sg9
S'apt-get install gstreamer0.10-plugins-ugly-multiverse'
p80
sg11
I1
sg12
I0
ssg1
(S'\x07\xda\x0b\n\x12\n\x0c\x00\x00\x00'
p81
tp82
Rp83
(dp84
g6
I0
sg7
I0
sg8
I0
sg9
S'apt-get install libsmokeqtgui4-3'
p85
sg11
I5
sg12
I0
ssg1
(S'\x07\xda\x0b\n\x01\x159\x00\x00\x00'
p86
tp87
Rp88
(dp89
g6
I0
sg7
I0
sg8
I0
sg9
S'apt-get install xserver-xephyr'
p90
sg11
I1
sg12
I0
ssg1
(S'\x07\xda\x0b\x04\x011\x16\x00\x00\x00'
p91
tp92
Rp93
(dp94
g6
I0
sg7
I0
sg8
I0
sg9
S'apt-get install libtelepathy-farsight-dev libtelepathy-glib-dev'
p95
sg11
I4
sg12
I0
ssg1
(S'\x07\xdb\x02\x01\x0c5%\x00\x00\x00'
p96
tp97
Rp98
(dp99
g6
I0
sg7
I0
sg8
I0
sg9
S'apt-get install kblackbox'
p100
sg11
I3
sg12
I0
ssg1
(S'\x07\xda\x0c\t\x17\x0f0\x00\x00\x00'
p101
tp102
Rp103
(dp104
g6
I0
sg7
I0
sg8
I0
sg9
S'apt-get install ffmpegthumbnailer'
p105
sg11
I1
sg12
I0
ssg1
(S'\x07\xda\x0c\x05\x15\x0e\x0e\x00\x00\x00'
p106
tp107
Rp108
(dp109
g6
I136
sg7
I0
sg8
I0
sg9
S'apt-get dist-upgrade'
p110
sg11
I5
sg12
I0
ssg1
(S'\x07\xda\x0c\x10\x110\x15\x00\x00\x00'
p111
tp112
Rp113
(dp114
g6
I0
sg7
I1
sg8
I0
sg9
S'apt-get build-dep hplip'
p115
sg11
I24
sg12
I0
ssg1
(S'\x07\xda\x0c\x06\n2\x0f\x00\x00\x00'
p116
tp117
Rp118
(dp119
g6
I0
sg7
I0
sg8
I0
sg9
S'apt-get install bzr-gtk qbzr'
p120
sg11
I16
sg12
I0
ssg1
(S'\x07\xda\x0b\x04\x02\x08%\x00\x00\x00'
p121
tp122
Rp123
(dp124
g6
I0
sg7
I0
sg8
I0
sg9
S'apt-get install qtcreator'
p125
sg11
I11
sg12
I0
ssg1
(S'\x07\xdb\x01\x18\x161\x16\x00\x00\x00'
p126
tp127
Rp128
(dp129
g6
I0
sg7
I0
sg8
I0
sg9
S'apt-get install testdisk'
p130
sg11
I1
sg12
I0
ssg1
(S'\x07\xda\x0c\x07\x116:\x00\x00\x00'
p131
tp132
Rp133
(dp134
g6
I0
sg7
I0
sg8
I0
sg9
S'apt-get install isync'
p135
sg11
I3
sg12
I0
ssg1
(S'\x07\xdb\x01\x0e\x11+\x18\x00\x00\x00'
p136
tp137
Rp138
(dp139
g6
I0
sg7
I0
sg8
I0
sg9
S'apt-get install qt4-qmlviewer'
p140
sg11
I1
sg12
I0
ssg1
(S'\x07\xda\x0b\x04\x16&\x00\x00\x00\x00'
p141
tp142
Rp143
(dp144
g6
I0
sg7
I0
sg8
I0
sg9
S'apt-get install prosody'
p145
sg11
I11
sg12
I0
ssg1
(S'\x07\xda\x0b\x02\x00 9\x00\x00\x00'
p146
tp147
Rp148
(dp149
g6
I0
sg7
I0
sg8
I0
sg9
S'apt-get install subversion'
p150
sg11
I7
sg12
I0
ssg1
(S'\x07\xda\x0b\x02\x137\x00\x00\x00\x00'
p151
tp152
Rp153
(dp154
g6
I0
sg7
I0
sg8
I0
sg9
S'apt-get install libgirepository1.0-dev'
p155
sg11
I3
sg12
I0
ssg1
(S'\x07\xdb\x01\x1f\x00\x11\t\x00\x00\x00'
p156
tp157
Rp158
(dp159
g6
I22
sg7
I0
sg8
I0
sg9
S'apt-get dist-upgrade'
p160
sg11
I0
sg12
I0
ssg1
(S'\x07\xda\x0b\x06\x02\x01\r\x00\x00\x00'
p161
tp162
Rp163
(dp164
g6
I0
sg7
I0
sg8
I0
sg9
S'apt-get install cheese'
p165
sg11
I5
sg12
I0
ssg1
(S'\x07\xdb\x01\x16\x10!\x19\x00\x00\x00'
p166
tp167
Rp168
(dp169
g6
I0
sg7
I0
sg8
I0
sg9
S'apt-get install kguitar'
p170
sg11
I3
sg12
I0
ssg1
(S'\x07\xda\x0b\x13\x11\x1e\x1c\x00\x00\x00'
p171
tp172
Rp173
(dp174
g6
I0
sg7
I0
sg8
I0
sg9
S'apt-get install faenza-icon-theme'
p175
sg11
I1
sg12
I0
ssg1
(S'\x07\xda\x0b\x04\x0b.(\x00\x00\x00'
p176
tp177
Rp178
(dp179
g6
I0
sg7
I0
sg8
I0
sg9
S'apt-get install unrar'
p180
sg11
I1
sg12
I0
ssg1
(S'\x07\xdb\x01\x04\x0c/ \x00\x00\x00'
p181
tp182
Rp183
(dp184
g6
I30
sg7
I0
sg8
I0
sg9
S'apt-get dist-upgrade'
p185
sg11
I0
sg12
I0
ssg1
(S'\x07\xda\x0b\n\x12\t\x1b\x00\x00\x00'
p186
tp187
Rp188
(dp189
g6
I0
sg7
I0
sg8
I0
sg9
S'apt-get install libsmokeqt-dev'
p190
sg11
I5
sg12
I0
ssg1
(S'\x07\xda\x0c\x11\x0c6\x17\x00\x00\x00'
p191
tp192
Rp193
(dp194
g6
I0
sg7
I0
sg8
I0
sg9
S'apt-get install powertop'
p195
sg11
I1
sg12
I0
ssg1
(S'\x07\xdb\x01\x16\x10\x1b6\x00\x00\x00'
p196
tp197
Rp198
(dp199
g6
I0
sg7
I4
sg8
I0
sg9
S'apt-get remove tuxguitar'
p200
sg11
I0
sg12
I0
ssg1
(S'\x07\xda\x0b\x04\x0b/\x11\x00\x00\x00'
p201
tp202
Rp203
(dp204
g6
I0
sg7
I0
sg8
I0
sg9
S'apt-get install p7zip'
p205
sg11
I1
sg12
I0
ssg1
(S'\x07\xda\x0b\x02\n\x12\x13\x00\x00\x00'
p206
tp207
Rp208
(dp209
g6
I0
sg7
I0
sg8
I0
sg9
S'apt-get install libcv-dev'
p210
sg11
I17
sg12
I0
ssg1
(S'\x07\xda\x0c\r\x001\x18\x00\x00\x00'
p211
tp212
Rp213
(dp214
g6
I0
sg7
I0
sg8
I0
sg9
S'apt-get install docker'
p215
sg11
I1
sg12
I0
ssg1
(S'\x07\xda\x0c\x14\x16\x01\x02\x00\x00\x00'
p216
tp217
Rp218
(dp219
g6
I0
sg7
I0
sg8
I0
sg9
S'apt-get install chromium-browser'
p220
sg11
I5
sg12
I0
ssg1
(S'\x07\xda\x0b\x04\x01\x1d:\x00\x00\x00'
p221
tp222
Rp223
(dp224
g6
I0
sg7
I0
sg8
I0
sg9
S'apt-get install libgloox-dev'
p225
sg11
I3
sg12
I0
ssg1
(S'\x07\xda\x0c\x11\x0b %\x00\x00\x00'
p226
tp227
Rp228
(dp229
g6
I0
sg7
I0
sg8
I0
sg9
S'apt-get install virtualbox-ose-qt'
p230
sg11
I9
sg12
I0
ssg1
(S'\x07\xdb\x01\x18\x1111\x00\x00\x00'
p231
tp232
Rp233
(dp234
g6
I0
sg7
I0
sg8
I0
sg9
S'apt-get install nfdump'
p235
sg11
I5
sg12
I0
ssg1
(S'\x07\xdb\x01\x01\x11\x1f\x1b\x00\x00\x00'
p236
tp237
Rp238
(dp239
g6
I0
sg7
I1
sg8
I0
sg9
S'apt-get install ubuntu-desktop'
p240
sg11
I337
sg12
I0
ssg1
(S'\x07\xdb\x01\x06\x15\x01-\x00\x00\x00'
p241
tp242
Rp243
(dp244
g6
I0
sg7
I0
sg8
I0
sg9
S'apt-get install mhddfs'
p245
sg11
I1
sg12
I0
ssg1
(S'\x07\xda\x0b\x03\x0c\t4\x00\x00\x00'
p246
tp247
Rp248
(dp249
g6
I0
sg7
I0
sg8
I0
sg9
S'apt-get install libxkbfile-dev'
p250
sg11
I1
sg12
I0
ssg1
(S'\x07\xdb\x01\x02\x15\x1d\x00\x00\x00\x00'
p251
tp252
Rp253
(dp254
g6
I0
sg7
I0
sg8
I0
sg9
S'apt-get install iotop'
p255
sg11
I1
sg12
I0
ssg1
(S'\x07\xda\x0b\x02\x0046\x00\x00\x00'
p256
tp257
Rp258
(dp259
g6
I0
sg7
I0
sg8
I0
sg9
S'apt-get install apt-file libjpeg62-dev'
p260
sg11
I12
sg12
I0
ssg1
(S'\x07\xda\x0b\x02\n&5\x00\x00\x00'
p261
tp262
Rp263
(dp264
g6
I88
sg7
I0
sg8
I0
sg9
S'apt-get dist-upgrade'
p265
sg11
I2
sg12
I0
ssg1
(S'\x07\xda\x0b\t\x02\x10\x11\x00\x00\x00'
p266
tp267
Rp268
(dp269
g6
I0
sg7
I0
sg8
I0
sg9
S'apt-get install bzr'
p270
sg11
I7
sg12
I0
ssg1
(S'\x07\xda\x0c\x07\x0e\x1d\x01\x00\x00\x00'
p271
tp272
Rp273
(dp274
g6
I4
sg7
I0
sg8
I0
sg9
S'apt-get dist-upgrade'
p275
sg11
I0
sg12
I0
ssg1
(S'\x07\xda\x0b\t\x02\x11:\x00\x00\x00'
p276
tp277
Rp278
(dp279
g6
I0
sg7
I0
sg8
I0
sg9
S'apt-get install libxklavier-dev'
p280
sg11
I3
sg12
I0
ssg1
(S'\x07\xda\x0b\x12\x0c\x1b7\x00\x00\x00'
p281
tp282
Rp283
(dp284
g6
I0
sg7
I0
sg8
I0
sg9
S'apt-get install texlive-latex-extra'
p285
sg11
I39
sg12
I0
ssg1
(S'\x07\xdb\x01\x17\x17\x100\x00\x00\x00'
p286
tp287
Rp288
(dp289
g6
I0
sg7
I0
sg8
I0
sg9
S'apt-get install librpm-dev'
p290
sg11
I17
sg12
I0
ssg1
(S'\x07\xda\x0b\t\x0f6 \x00\x00\x00'
p291
tp292
Rp293
(dp294
g6
I0
sg7
I0
sg8
I0
sg9
S'apt-get install gstreamer0.10-plugins-bad-multiverse'
p295
sg11
I11
sg12
I0
ssg1
(S'\x07\xda\x0b\x0b\x01\x05\x11\x00\x00\x00'
p296
tp297
Rp298
(dp299
g6
I0
sg7
I0
sg8
I0
sg9
S'apt-get install kmysqladmin'
p300
sg11
I11
sg12
I0
ssg1
(S'\x07\xdb\x01\x11\x102\x13\x00\x00\x00'
p301
tp302
Rp303
(dp304
g6
I24
sg7
I0
sg8
I0
sg9
I0
sg11
I0
sg12
I0
ssg1
(S'\x07\xdb\x01\x03\x13; \x00\x00\x00'
p305
tp306
Rp307
(dp308
g6
I0
sg7
I0
sg8
I0
sg9
S'apt-get install python-setuptools'
p309
sg11
I1
sg12
I0
ssg1
(S'\x07\xda\x0b\x0b\x01\t\x1e\x00\x00\x00'
p310
tp311
Rp312
(dp313
g6
I0
sg7
I0
sg8
I0
sg9
S'apt-get install mysql-query-browser'
p314
sg11
I7
sg12
I0
ssg1
(S'\x07\xda\x0b\x0b\r\x16\x18\x00\x00\x00'
p315
tp316
Rp317
(dp318
g6
I10
sg7
I0
sg8
I0
sg9
S'apt-get dist-upgrade'
p319
sg11
I0
sg12
I0
ssg1
(S'\x07\xdb\x01\n\x0b\x1e0\x00\x00\x00'
p320
tp321
Rp322
(dp323
g6
I492
sg7
I8
sg8
I0
sg9
S'apt-get dist-upgrade'
p324
sg11
I64
sg12
I0
ssg1
(S'\x07\xda\x0c\t\x01*;\x00\x00\x00'
p325
tp326
Rp327
(dp328
g6
I0
sg7
I1
sg8
I0
sg9
S'apt-get remove empathy'
p329
sg11
I0
sg12
I0
ssg1
(S'\x07\xdb\x01\x07\x13\x10!\x00\x00\x00'
p330
tp331
Rp332
(dp333
g6
I36
sg7
I0
sg8
I0
sg9
I0
sg11
I0
sg12
I0
ssg1
(S'\x07\xda\x0b\x03\x0e\x1f\x12\x00\x00\x00'
p334
tp335
Rp336
(dp337
g6
I0
sg7
I0
sg8
I0
sg9
S'apt-get install qtscript-tools'
p338
sg11
I13
sg12
I0
ssg1
(S'\x07\xdb\x01\x0e\x11\x1e\x18\x00\x00\x00'
p339
tp340
Rp341
(dp342
g6
I12
sg7
I0
sg8
I0
sg9
I0
sg11
I0
sg12
I0
ssg1
(S'\x07\xda\x0c\t\x15%)\x00\x00\x00'
p343
tp344
Rp345
(dp346
g6
I0
sg7
I1
sg8
I0
sg9
S'apt-get remove konqueror'
p347
sg11
I0
sg12
I0
ssg1
(S"\x07\xda\x0b\x04\x0b8'\x00\x00\x00"
p348
tp349
Rp350
(dp351
g6
I0
sg7
I0
sg8
I0
sg9
S'apt-get install bison'
p352
sg11
I1
sg12
I0
ssg1
(S'\x07\xda\x0b\x02\x12\r*\x00\x00\x00'
p353
tp354
Rp355
(dp356
g6
I0
sg7
I0
sg8
I0
sg9
S'apt-get install libssl-dev libbz2-dev libpcre3-dev libasound2-dev libaspell-dev libavahi-common-dev libenchant-dev libjasper-dev libopenexr-dev libxml2-utils libboost-dev libboost-program-options-dev libboost-graph-dev libgpgme11-dev libsasl2-dev libical-dev libxine-dev'
p357
sg11
I39
sg12
I0
ssg1
(S'\x07\xdb\x01\x05\x16"#\x00\x00\x00'
p358
tp359
Rp360
(dp361
g6
I18
sg7
I0
sg8
I0
sg9
S'apt-get dist-upgrade'
p362
sg11
I0
sg12
I0
ssg1
(S'\x07\xda\x0b\x13\x12#\x13\x00\x00\x00'
p363
tp364
Rp365
(dp366
g6
I78
sg7
I0
sg8
I0
sg9
S'apt-get dist-upgrade'
p367
sg11
I0
sg12
I0
ssg1
(S'\x07\xda\x0b\x0b\x00\x04-\x00\x00\x00'
p368
tp369
Rp370
(dp371
g6
I0
sg7
I0
sg8
I0
sg9
S'apt-get install php-db'
p372
sg11
I5
sg12
I0
ssg1
(S'\x07\xda\x0c\x12\x0c.\x07\x00\x00\x00'
p373
tp374
Rp375
(dp376
g6
I0
sg7
I0
sg8
I0
sg9
S'apt-get install ruby1.9.1'
p377
sg11
I5
sg12
I0
ssg1
(S'\x07\xda\x0b\x1b\x00\x041\x00\x00\x00'
p378
tp379
Rp380
(dp381
g6
I0
sg7
I1
sg8
I0
sg9
S'apt-get install php5-gd'
p382
sg11
I5
sg12
I0
ssg1
(S'\x07\xda\x0b\x03\x0c\x07$\x00\x00\x00'
p383
tp384
Rp385
(dp386
g6
I0
sg7
I0
sg8
I0
sg9
S'apt-get install libxdb-dev'
p387
sg11
I3
sg12
I0
ssg1
(S'\x07\xda\x0c\n\x01"\x19\x00\x00\x00'
p388
tp389
Rp390
(dp391
g6
I0
sg7
I0
sg8
I0
sg9
S'apt-get install kapptemplate'
p392
sg11
I1
sg12
I0
ssg1
(S'\x07\xdb\x01\x02\x15+9\x00\x00\x00'
p393
tp394
Rp395
(dp396
g6
I0
sg7
I0
sg8
I0
sg9
S'apt-get install jadetex'
p397
sg11
I1
sg12
I0
ssg1
(S'\x07\xda\x0b\x01\x17)\x08\x00\x00\x00'
p398
tp399
Rp400
(dp401
g6
I0
sg7
I0
sg8
I0
sg9
S'apt-get install qgit'
p402
sg11
I5
sg12
I0
ssg1
(S'\x07\xda\x0b\x04\x0b8:\x00\x00\x00'
p403
tp404
Rp405
(dp406
g6
I0
sg7
I0
sg8
I0
sg9
S'apt-get install doxygen'
p407
sg11
I5
sg12
I0
ssg1
(S'\x07\xda\x0b\x05\x11#/\x00\x00\x00'
p408
tp409
Rp410
(dp411
g6
I0
sg7
I0
sg8
I0
sg9
S'apt-get install gtkterm'
p412
sg11
I5
sg12
I0
ssg1
(S'\x07\xda\x0b\x12\r\n\x0f\x00\x00\x00'
p413
tp414
Rp415
(dp416
g6
I0
sg7
I0
sg8
I0
sg9
S'apt-get install semantik kdissert'
p417
sg11
I2
sg12
I0
ssg1
(S'\x07\xda\x0c\x0b\x0f\x11\x07\x00\x00\x00'
p418
tp419
Rp420
(dp421
g6
I0
sg7
I1
sg8
I0
sg9
S'apt-get remove konqueror'
p422
sg11
I0
sg12
I0
ssg1
(S'\x07\xda\x0b\x08\x0e,\x12\x00\x00\x00'
p423
tp424
Rp425
(dp426
g6
I0
sg7
I0
sg8
I0
sg9
S'apt-get install gnome-media'
p427
sg11
I7
sg12
I0
ssg1
(S'\x07\xdb\x01\x0c\r\x1f*\x00\x00\x00'
p428
tp429
Rp430
(dp431
g6
I26
sg7
I0
sg8
I0
sg9
S'apt-get dist-upgrade'
p432
sg11
I0
sg12
I0
ssg1
(S'\x07\xda\x0b\x04\x0b8\x19\x00\x00\x00'
p433
tp434
Rp435
(dp436
g6
I0
sg7
I0
sg8
I0
sg9
S'apt-get install flex'
p437
sg11
I1
sg12
I0
ssg1
(S'\x07\xda\x0b\x01\x173\t\x00\x00\x00'
p438
tp439
Rp440
(dp441
g6
I0
sg7
I0
sg8
I0
sg9
S'apt-get install gstreamer0.10-plugins-good gstreamer0.10-plugins-bad gstreamer0.10-plugins-ugly'
p442
sg11
I125
sg12
I0
ssg1
(S'\x07\xda\x0b\x0c\x12\t\x06\x00\x00\x00'
p443
tp444
Rp445
(dp446
g6
I18
sg7
I0
sg8
I0
sg9
S'apt-get dist-upgrade'
p447
sg11
I0
sg12
I0
ssg1
(S'\x07\xda\x0b\x04\x00\x00*\x00\x00\x00'
p448
tp449
Rp450
(dp451
g6
I0
sg7
I0
sg8
I0
sg9
S'apt-get install arduino'
p452
sg11
I27
sg12
I0
ssg1
(S'\x07\xda\x0b\x1d\x13\x041\x00\x00\x00'
p453
tp454
Rp455
(dp456
g6
I0
sg7
I0
sg8
I0
sg9
S'apt-get install gnome-panel'
p457
sg11
I103
sg12
I0
ssg1
(S'\x07\xda\x0c\x11\x01/4\x00\x00\x00'
p458
tp459
Rp460
(dp461
g6
I0
sg7
I0
sg8
I0
sg9
S'apt-get install tuxguitar-alsa tuxguitar-jsa'
p462
sg11
I1
sg12
I0
ssg1
(S'\x07\xda\x0b\n\x12\x0e2\x00\x00\x00'
p463
tp464
Rp465
(dp466
g6
I0
sg7
I0
sg8
I0
sg9
S'apt-get install libsmokekdeui4-3'
p467
sg11
I9
sg12
I0
ssg1
(S'\x07\xda\x0b\x01\x174\x1a\x00\x00\x00'
p468
tp469
Rp470
(dp471
g6
I0
sg7
I0
sg8
I0
sg9
S'apt-get install phonon-backend-gstreamer'
p472
sg11
I3
sg12
I0
ssg1
(S'\x07\xda\x0c\r\x136/\x00\x00\x00'
p473
tp474
Rp475
(dp476
g6
I0
sg7
I0
sg8
I0
sg9
I0
sg11
I1
sg12
I0
ssg1
(S'\x07\xda\x0c\x07\x0e\x12\x14\x00\x00\x00'
p477
tp478
Rp479
(dp480
g6
I0
sg7
I0
sg8
I0
sg9
S'apt-get install mesa-utils'
p481
sg11
I3
sg12
I0
ssg1
(S'\x07\xdb\x01\t\x17\x0e2\x00\x00\x00'
p482
tp483
Rp484
(dp485
g6
I0
sg7
I0
sg8
I0
sg9
I0
sg11
I15
sg12
I0
ssg1
(S'\x07\xda\x0c\x06\x16\x026\x00\x00\x00'
p486
tp487
Rp488
(dp489
g6
I0
sg7
I0
sg8
I0
sg9
S'apt-get install kipi-plugins-common kipi-plugins'
p490
sg11
I6
sg12
I0
ssg1
(S'\x07\xda\x0b\x02\x00\x03%\x00\x00\x00'
p491
tp492
Rp493
(dp494
g6
I12
sg7
I0
sg8
I0
sg9
S'apt-get build-dep amarok'
p495
sg11
I237
sg12
I0
ssg1
(S'\x07\xda\x0b\x01\x17$%\x00\x00\x00'
p496
tp497
Rp498
(dp499
g6
I0
sg7
I0
sg8
I0
sg9
S'apt-get install icecc icecc-monitor firefox'
p500
sg11
I33
sg12
I0
ssg1
(S'\x07\xdb\x01\x19\x10+\x03\x00\x00\x00'
p501
tp502
Rp503
(dp504
g6
I90
sg7
I0
sg8
I0
sg9
S'apt-get dist-upgrade'
p505
sg11
I4
sg12
I0
ssg1
(S'\x07\xda\x0b\t\x02\x12%\x00\x00\x00'
p506
tp507
Rp508
(dp509
g6
I0
sg7
I0
sg8
I0
sg9
S'apt-get install libwebkit-dev'
p510
sg11
I3
sg12
I0
ssg1
(S'\x07\xdb\x01\x14\x020\x13\x00\x00\x00'
p511
tp512
Rp513
(dp514
g6
I38
sg7
I0
sg8
I0
sg9
I0
sg11
I0
sg12
I0
ssg1
(S'\x07\xda\x0c\x0f\x0c&(\x00\x00\x00'
p515
tp516
Rp517
(dp518
g6
I0
sg7
I0
sg8
I0
sg9
S'apt-get install tree'
p519
sg11
I1
sg12
I0
ssg1
(S'\x07\xda\x0b\x02\x13&(\x00\x00\x00'
p520
tp521
Rp522
(dp523
g6
I0
sg7
I0
sg8
I0
sg9
S'apt-get install libpolkit-qt-1-dev'
p524
sg11
I1
sg12
I0
ssg1
(S'\x07\xda\x0b\x1a\x0e\x14%\x00\x00\x00'
p525
tp526
Rp527
(dp528
g6
I0
sg7
I0
sg8
I0
sg9
S'apt-get install python-imdbpy'
p529
sg11
I1
sg12
I0
ssg1
(S'\x07\xdb\x01\x16\x10\x1c \x00\x00\x00'
p530
tp531
Rp532
(dp533
g6
I0
sg7
I0
sg8
I0
sg9
S'apt-get install tuxguitar'
p534
sg11
I5
sg12
I0
ssg1
(S"\x07\xda\x0b\x1b\r\x04'\x00\x00\x00"
p535
tp536
Rp537
(dp538
g6
I0
sg7
I0
sg8
I0
sg9
S'apt-get install php5-imagick'
p539
sg11
I1
sg12
I0
ssg1
(S'\x07\xda\x0c\x06\x13\x13)\x00\x00\x00'
p540
tp541
Rp542
(dp543
g6
I0
sg7
I0
sg8
I0
sg9
S'apt-get install gdm'
p544
sg11
I1
sg12
I0
ssg1
(S'\x07\xdb\x01\x19\x00:8\x00\x00\x00'
p545
tp546
Rp547
(dp548
g6
I0
sg7
I0
sg8
I0
sg9
S'apt-get install smart-notifier'
p549
sg11
I3
sg12
I0
ssg1
(S'\x07\xda\x0c\t\x17\x0f\x01\x00\x00\x00'
p550
tp551
Rp552
(dp553
g6
I0
sg7
I0
sg8
I0
sg9
S'apt-get install libffmpegthumbnailer4'
p554
sg11
I1
sg12
I0
ssg1
(S'\x07\xda\x0b\x01\x17\t\x1b\x00\x00\x00'
p555
tp556
Rp557
(dp558
g6
I4
sg7
I0
sg8
I0
sg9
S'apt-get install flashplugin-nonfree'
p559
sg11
I23
sg12
I0
ssg1
(S'\x07\xda\x0b\x17\x0e\x1b-\x00\x00\x00'
p560
tp561
Rp562
(dp563
g6
I0
sg7
I0
sg8
I0
sg9
S'apt-get install libnotify-bin'
p564
sg11
I1
sg12
I0
ssg1
(S'\x07\xda\x0c\x12\x0c-\x1c\x00\x00\x00'
p565
tp566
Rp567
(dp568
g6
I0
sg7
I0
sg8
I0
sg9
S'apt-get install libruby-extras rubygems'
p569
sg11
I18
sg12
I0
ssg1
(S'\x07\xda\x0b\x02\x12\x14\x18\x00\x00\x00'
p570
tp571
Rp572
(dp573
g6
I0
sg7
I0
sg8
I0
sg9
S'apt-get install libattica-dev'
p574
sg11
I1
sg12
I0
ssg1
(S'\x07\xda\x0b\x02\x12\x161\x00\x00\x00'
p575
tp576
Rp577
(dp578
g6
I0
sg7
I0
sg8
I0
sg9
S'apt-get install libgif-dev'
p579
sg11
I1
sg12
I0
ssg1
(S"\x07\xda\x0b\x04\x14'\x14\x00\x00\x00"
p580
tp581
Rp582
(dp583
g6
I0
sg7
I0
sg8
I0
sg9
S'apt-get install nmap'
p584
sg11
I3
sg12
I0
ssg1
(S'\x07\xda\x0b\n\x17;\x1d\x00\x00\x00'
p585
tp586
Rp587
(dp588
g6
I0
sg7
I1
sg8
I0
sg9
S'apt-get install libapache2-mod-php5filter'
p589
sg11
I5
sg12
I0
ssg1
(S'\x07\xda\x0b\x1a\x17%\x08\x00\x00\x00'
p590
tp591
Rp592
(dp593
g6
I0
sg7
I0
sg8
I0
sg9
S'apt-get install bpython'
p594
sg11
I3
sg12
I0
ssg1
(S'\x07\xda\x0b\x10\r)\x05\x00\x00\x00'
p595
tp596
Rp597
(dp598
g6
I0
sg7
I0
sg8
I0
sg9
S'apt-get install opencv-doc'
p599
sg11
I1
sg12
I0
ssg1
(S'\x07\xda\x0c\x17\r\x08/\x00\x00\x00'
p600
tp601
Rp602
(dp603
g6
I66
sg7
I0
sg8
I0
sg9
S'apt-get dist-upgrade'
p604
sg11
I7
sg12
I0
ssg1
(S'\x07\xda\x0b\x02\x13,\x01\x00\x00\x00'
p605
tp606
Rp607
(dp608
g6
I0
sg7
I0
sg8
I0
sg9
S'apt-get install libpolkit-backend-1-dev'
p609
sg11
I1
sg12
I0
ssg1
(S'\x07\xdb\x01\x1b\x0c/\x03\x00\x00\x00'
p610
tp611
Rp612
(dp613
g6
I36
sg7
I0
sg8
I0
sg9
S'apt-get dist-upgrade'
p614
sg11
I5
sg12
I0
ssg1
(S'\x07\xda\x0c\t\x01\x13\x1d\x00\x00\x00'
p615
tp616
Rp617
(dp618
g6
I0
sg7
I0
sg8
I0
sg9
S'apt-get install d-feet'
p619
sg11
I3
sg12
I0
ssg1
(S'\x07\xda\x0b\x04\x01\x1e#\x00\x00\x00'
p620
tp621
Rp622
(dp623
g6
I0
sg7
I0
sg8
I0
sg9
S'apt-get install libgstreamer0.10-dev'
p624
sg11
I1
sg12
I0
ssg1
(S'\x07\xda\x0c\x06\x0b(\x1e\x00\x00\x00'
p625
tp626
Rp627
(dp628
g6
I0
sg7
I1
sg8
I0
sg9
I0
sg11
I0
sg12
I0
ssg1
(S'\x07\xda\x0b\x01\x17*%\x00\x00\x00'
p629
tp630
Rp631
(dp632
g6
I0
sg7
I0
sg8
I0
sg9
S'apt-get install smbfs'
p633
sg11
I3
sg12
I0
ssg1
(S'\x07\xda\x0b\x1a\r\x0c\x18\x00\x00\x00'
p634
tp635
Rp636
(dp637
g6
I0
sg7
I0
sg8
I0
sg9
S'apt-get install gravitation'
p638
sg11
I1
sg12
I0
ssg1
(S'\x07\xda\x0b\x02\r\x07+\x00\x00\x00'
p639
tp640
Rp641
(dp642
g6
I0
sg7
I0
sg8
I0
sg9
S'apt-get install gimp'
p643
sg11
I17
sg12
I0
ssg1
(S'\x07\xda\x0b\x0e\r$\x00\x00\x00\x00'
p644
tp645
Rp646
(dp647
g6
I0
sg7
I0
sg8
I0
sg9
S'apt-get install software-center'
p648
sg11
I81
sg12
I0
ssg1
(S'\x07\xda\x0b\x03\r60\x00\x00\x00'
p649
tp650
Rp651
(dp652
g6
I0
sg7
I0
sg8
I0
sg9
S'apt-get install librdf0-dev'
p653
sg11
I25
sg12
I0
ssg1
(S'\x07\xda\x0c\x12\x0c,\x1a\x00\x00\x00'
p654
tp655
Rp656
(dp657
g6
I0
sg7
I0
sg8
I0
sg9
S'apt-get install korundum4'
p658
sg11
I45
sg12
I0
ssg1
(S"\x07\xda\x0b\x10\x0c,'\x00\x00\x00"
p659
tp660
Rp661
(dp662
g6
I0
sg7
I0
sg8
I0
sg9
S'apt-get install kompare'
p663
sg11
I1
sg12
I0
ssg1
(S'\x07\xdb\x01\x1a\x17\x1d5\x00\x00\x00'
p664
tp665
Rp666
(dp667
g6
I28
sg7
I0
sg8
I0
sg9
S'apt-get dist-upgrade'
p668
sg11
I0
sg12
I0
ssg1
(S'\x07\xda\x0b\x0e\x0e\x06%\x00\x00\x00'
p669
tp670
Rp671
(dp672
g6
I0
sg7
I0
sg8
I0
sg9
I0
sg11
I3
sg12
I0
ssg1
(S'\x07\xda\x0b\x11\x02\x00\x11\x00\x00\x00'
p673
tp674
Rp675
(dp676
g6
I0
sg7
I0
sg8
I0
sg9
S'apt-get install pamusb-tools libpam-usb pmount'
p677
sg11
I3
sg12
I0
ssg1
(S'\x07\xda\x0b\x1a\x11/\x0e\x00\x00\x00'
p678
tp679
Rp680
(dp681
g6
I0
sg7
I0
sg8
I0
sg9
S'apt-get install python-mysqldb'
p682
sg11
I1
sg12
I0
ssg1
(S'\x07\xda\x0b\x1d\x10\x19&\x00\x00\x00'
p683
tp684
Rp685
(dp686
g6
I0
sg7
I0
sg8
I0
sg9
S'apt-get install clementine'
p687
sg11
I1
sg12
I0
ssg1
(S'\x07\xda\x0b\x03\x17\x17\x10\x00\x00\x00'
p688
tp689
Rp690
(dp691
g6
I0
sg7
I0
sg8
I0
sg9
S'apt-get install nautilus'
p692
sg11
I19
sg12
I0
ssg1
(S'\x07\xda\x0c\x12\x0c/\r\x00\x00\x00'
p693
tp694
Rp695
(dp696
g6
I0
sg7
I0
sg8
I0
sg9
S'apt-get install libjson-ruby'
p697
sg11
I3
sg12
I0
ssg1
(S'\x07\xda\x0b\x18\x08\x0b\x17\x00\x00\x00'
p698
tp699
Rp700
(dp701
g6
I0
sg7
I0
sg8
I0
sg9
S'apt-get build-dep kdm'
p702
sg11
I37
sg12
I0
ssg1
(S'\x07\xdb\x01\x12\x023!\x00\x00\x00'
p703
tp704
Rp705
(dp706
g6
I10
sg7
I0
sg8
I0
sg9
I0
sg11
I0
sg12
I0
ssg1
(S'\x07\xdb\x01\t\x17//\x00\x00\x00'
p707
tp708
Rp709
(dp710
g6
I0
sg7
I0
sg8
I0
sg9
I0
sg11
I3
sg12
I0
ssg1
(S'\x07\xda\x0b\x01\x17\x15\r\x00\x00\x00'
p711
tp712
Rp713
(dp714
g6
I0
sg7
I0
sg8
I0
sg9
S'apt-get install git'
p715
sg11
I5
sg12
I0
ssg1
(S'\x07\xda\x0b\x04\r;-\x00\x00\x00'
p716
tp717
Rp718
(dp719
g6
I0
sg7
I0
sg8
I0
sg9
S'apt-get install akonadi-kde-resource-googledata'
p720
sg11
I3
sg12
I0
ssg1
(S'\x07\xdb\x01\x13\x12\x12$\x00\x00\x00'
p721
tp722
Rp723
(dp724
g6
I12
sg7
I0
sg8
I0
sg9
I0
sg11
I0
sg12
I0
ssg1
(S'\x07\xda\x0b\n\x17:(\x00\x00\x00'
p725
tp726
Rp727
(dp728
g6
I0
sg7
I0
sg8
I0
sg9
S'apt-get install apache2 mysql-server'
p729
sg11
I14
sg12
I0
ssg1
(S'\x07\xdb\x01\x01\x11\x168\x00\x00\x00'
p730
tp731
Rp732
(dp733
g6
I0
sg7
I0
sg8
I0
sg9
S'apt-get install unity unity-asset-pool unity-place-applications'
p734
sg11
I121
sg12
I0
ssg1
(S'\x07\xda\x0b\x12\x002\x18\x00\x00\x00'
p735
tp736
Rp737
(dp738
g6
I0
sg7
I0
sg8
I0
sg9
S'apt-get install plasma-runners-addons'
p739
sg11
I1
sg12
I0
ssg1
(S'\x07\xda\x0b\x04\x00\x0c\x1f\x00\x00\x00'
p740
tp741
Rp742
(dp743
g6
I0
sg7
I0
sg8
I0
sg9
S'apt-get install empathy'
p744
sg11
I107
sg12
I0
ssg1
(S'\x07\xda\x0c\r\x005)\x00\x00\x00'
p745
tp746
Rp747
(dp748
g6
I0
sg7
I0
sg8
I0
sg9
S'apt-get install docky'
p749
sg11
I75
sg12
I0
ssg1
(S'\x07\xda\x0b\x02\x17\x148\x00\x00\x00'
p750
tp751
Rp752
(dp753
g6
I0
sg7
I0
sg8
I0
sg9
S'apt-get install cmake-curses-gui'
p754
sg11
I1
sg12
I0
ssg1
(S'\x07\xda\x0b\n\x12\x0b5\x00\x00\x00'
p755
tp756
Rp757
(dp758
g6
I152
sg7
I0
sg8
I0
sg9
S'apt-get dist-upgrade'
p759
sg11
I0
sg12
I0
ssg1
(S'\x07\xda\x0b\x12\r-\x13\x00\x00\x00'
p760
tp761
Rp762
(dp763
g6
I0
sg7
I0
sg8
I0
sg9
S'apt-get install mplayer'
p764
sg11
I25
sg12
I0
ssg1
(S'\x07\xda\x0b\x03\x17+.\x00\x00\x00'
p765
tp766
Rp767
(dp768
g6
I0
sg7
I0
sg8
I0
sg9
S'apt-get install texlive-latex-base'
p769
sg11
I21
sg12
I0
ssg1
(S'\x07\xda\x0b\x14\x00#\x16\x00\x00\x00'
p770
tp771
Rp772
(dp773
g6
I0
sg7
I0
sg8
I0
sg9
S'apt-get install libck-connector-dev'
p774
sg11
I1
sg12
I0
ssg1
(S'\x07\xdb\x01\x02\x15&5\x00\x00\x00'
p775
tp776
Rp777
(dp778
g6
I0
sg7
I0
sg8
I0
sg9
S'apt-get install libwxgtk2.8-dev'
p779
sg11
I5
sg12
I0
ssg1
(S'\x07\xdb\x01\x02\x1520\x00\x00\x00'
p780
tp781
Rp782
(dp783
g6
I0
sg7
I0
sg8
I0
sg9
S'apt-get install checkinstall'
p784
sg11
I1
sg12
I0
ssg1
(S'\x07\xdb\x01\x18\x16/4\x00\x00\x00'
p785
tp786
Rp787
(dp788
g6
I0
sg7
I0
sg8
I0
sg9
S'apt-get install magicrescue'
p789
sg11
I5
sg12
I0
ssg1
(S'\x07\xda\x0c\n\r\x1d\x12\x00\x00\x00'
p790
tp791
Rp792
(dp793
g6
I0
sg7
I0
sg8
I0
sg9
S'apt-get install konqueror'
p794
sg11
I1
sg12
I0
ssg1
(S'\x07\xda\x0b\x02\n\x13\x1d\x00\x00\x00'
p795
tp796
Rp797
(dp798
g6
I0
sg7
I0
sg8
I0
sg9
S'apt-get install libhighgui-dev'
p799
sg11
I15
sg12
I0
ssg1
(S'\x07\xda\x0b\x14\x14 +\x00\x00\x00'
p800
tp801
Rp802
(dp803
g6
I0
sg7
I0
sg8
I0
sg9
S'apt-get install konqueror'
p804
sg11
I5
sg12
I0
ssg1
(S'\x07\xda\x0b\x03\x0b6\x03\x00\x00\x00'
p805
tp806
Rp807
(dp808
g6
I0
sg7
I0
sg8
I0
sg9
I0
sg11
I3
sg12
I0
ssg1
(S'\x07\xda\x0c\x06\x16\r2\x00\x00\x00'
p809
tp810
Rp811
(dp812
g6
I0
sg7
I0
sg8
I0
sg9
S'apt-get install psi'
p813
sg11
I9
sg12
I0
ssg1
(S'\x07\xda\x0b\x14\x14"#\x00\x00\x00'
p814
tp815
Rp816
(dp817
g6
I0
sg7
I1
sg8
I0
sg9
S'apt-get remove konqueror'
p818
sg11
I0
sg12
I0
ssg1
(S'\x07\xda\x0b\x02\x13#\x0c\x00\x00\x00'
p819
tp820
Rp821
(dp822
g6
I0
sg7
I0
sg8
I0
sg9
S'apt-get install ccache'
p823
sg11
I1
sg12
I0
ssg1
(S'\x07\xda\x0b\x1c\x0e"\x0f\x00\x00\x00'
p824
tp825
Rp826
(dp827
g6
I0
sg7
I0
sg8
I0
sg9
S'apt-get install gcolor2'
p828
sg11
I1
sg12
I0
ssg1
(S'\x07\xda\x0c\x12\x0c+.\x00\x00\x00'
p829
tp830
Rp831
(dp832
g6
I0
sg7
I0
sg8
I0
sg9
S'apt-get install ruby'
p833
sg11
I5
sg12
I0
ssg1
(S'\x07\xdb\x01\x15\x03*+\x00\x00\x00'
p834
tp835
Rp836
(dp837
g6
I4
sg7
I0
sg8
I0
sg9
S'apt-get dist-upgrade'
p838
sg11
I0
sg12
I0
ssg1
(S'\x07\xda\x0c\t\x15#.\x00\x00\x00'
p839
tp840
Rp841
(dp842
g6
I0
sg7
I1
sg8
I0
sg9
S'apt-get remove empathy'
p843
sg11
I0
sg12
I0
ssg1
(S'\x07\xdb\x01\x02\x15*!\x00\x00\x00'
p844
tp845
Rp846
(dp847
g6
I0
sg7
I0
sg8
I0
sg9
S'apt-get install sgmltools-lite'
p848
sg11
I1
sg12
I0
ssg1
(S'\x07\xda\x0b\x02\x12\x15-\x00\x00\x00'
p849
tp850
Rp851
(dp852
g6
I0
sg7
I0
sg8
I0
sg9
S'apt-get install libxslt1-dev'
p853
sg11
I1
sg12
I0
ssg1
(S'\x07\xda\x0b\x04\x0b8\x00\x00\x00\x00'
p854
tp855
Rp856
(dp857
g6
I0
sg7
I0
sg8
I0
sg9
S'apt-get install libgstreamermm-0.10-dev'
p858
sg11
I13
sg12
I0
ssg1
(S'\x07\xdb\x01\x14\x1145\x00\x00\x00'
p859
tp860
Rp861
(dp862
g6
I2
sg7
I0
sg8
I0
sg9
S'apt-get dist-upgrade'
p863
sg11
I0
sg12
I0
ssg1
(S'\x07\xdb\x01\x17\x17\x1a1\x00\x00\x00'
p864
tp865
Rp866
(dp867
g6
I0
sg7
I0
sg8
I0
sg9
S'apt-get install rpm'
p868
sg11
I3
sg12
I0
ssg1
(S'\x07\xda\x0b\x03\x113"\x00\x00\x00'
p869
tp870
Rp871
(dp872
g6
I0
sg7
I0
sg8
I0
sg9
S'apt-get install libqjson-dev'
p873
sg11
I1
sg12
I0
ssg1
(S'\x07\xda\x0b\x1d\x13\n%\x00\x00\x00'
p874
tp875
Rp876
(dp877
g6
I0
sg7
I0
sg8
I0
sg9
S'apt-get install nitrogen'
p878
sg11
I1
sg12
I0
ssg1
(S'\x07\xda\x0c\n\x11\x11\x1a\x00\x00\x00'
p879
tp880
Rp881
(dp882
g6
I52
sg7
I0
sg8
I0
sg9
S'apt-get dist-upgrade'
p883
sg11
I0
sg12
I0
ssg1
(S'\x07\xda\x0b\x03\x0f+;\x00\x00\x00'
p884
tp885
Rp886
(dp887
g6
I0
sg7
I0
sg8
I0
sg9
S'apt-get install tuxguitar'
p888
sg11
I41
sg12
I0
ssg1
(S'\x07\xda\x0b\x12\r\r\x0c\x00\x00\x00'
p889
tp890
Rp891
(dp892
g6
I0
sg7
I1
sg8
I0
sg9
S'apt-get remove kdissert'
p893
sg11
I0
sg12
I0
ssg1
(S'\x07\xda\x0b\x17\x0e\x1c\x11\x00\x00\x00'
p894
tp895
Rp896
(dp897
g6
I0
sg7
I0
sg8
I0
sg9
S'apt-get install inotify-tools'
p898
sg11
I3
sg12
I0
ssg1
(S'\x07\xdb\x01\x18\x112\x0b\x00\x00\x00'
p899
tp900
Rp901
(dp902
g6
I0
sg7
I0
sg8
I0
sg9
S'apt-get install etherape'
p903
sg11
I3
sg12
I0
ssg1
(S'\x07\xda\x0b\x01\x17\x06\x1f\x00\x00\x00'
p904
tp905
Rp906
(dp907
g6
I0
sg7
I0
sg8
I0
sg9
S'apt-get install openssh-server'
p908
sg11
I1
sg12
I0
ssg1
(S'\x07\xda\x0b\x02\x136\x10\x00\x00\x00'
p909
tp910
Rp911
(dp912
g6
I0
sg7
I0
sg8
I0
sg9
S'apt-get install gobject-introspection'
p913
sg11
I1
sg12
I0
ssg1
(S'\x07\xda\x0b\x02\x133\x18\x00\x00\x00'
p914
tp915
Rp916
(dp917
g6
I0
sg7
I0
sg8
I0
sg9
S'apt-get build-dep policykit-1'
p918
sg11
I42
sg12
I0
ssg1
(S'\x07\xdb\x01\x04\x02\x193\x00\x00\x00'
p919
tp920
Rp921
(dp922
g6
I0
sg7
I0
sg8
I0
sg9
S'apt-get install kile'
p923
sg11
I87
sg12
I0
ssg1
(S'\x07\xda\x0b\x01\x17\x16$\x00\x00\x00'
p924
tp925
Rp926
(dp927
g6
I0
sg7
I0
sg8
I0
sg9
S'apt-get install inkscape'
p928
sg11
I93
sg12
I0
ssg1
(S'\x07\xdb\x01\x19\x10,0\x00\x00\x00'
p929
tp930
Rp931
(dp932
g6
I2
sg7
I0
sg8
I0
sg9
S'apt-get -f install'
p933
sg11
I0
sg12
I0
ssg1
(S'\x07\xda\x0c\t\x15"\x06\x00\x00\x00'
p934
tp935
Rp936
(dp937
g6
I0
sg7
I0
sg8
I0
sg9
S'apt-get install empathy'
p938
sg11
I1
sg12
I0
ss.