(dp0
cdatetime
datetime
p1
(S'\x07\xda\x0c\x04\n"\x17\x00\x00\x00'
p2
tp3
Rp4
(dp5
S'upgrade'
p6
I28
sS'remove'
p7
I0
sS'purge'
p8
I0
sS'action'
p9
S'apt-get upgrade'
p10
sS'install'
p11
I0
sS'downgrade'
p12
I0
ssg1
(S'\x07\xda\x0b\x17\x1404\x00\x00\x00'
p13
tp14
Rp15
(dp16
g6
I0
sg7
I0
sg8
I0
sg9
S'apt-get install redis-server'
p17
sg11
I1
sg12
I0
ssg1
(S'\x07\xda\n\x01\r\x19;\x00\x00\x00'
p18
tp19
Rp20
(dp21
g6
I0
sg7
I0
sg8
I0
sg9
S'apt-get -o APT::Status-Fd=4 -o APT::Keep-Fds::=5 -o APT::Keep-Fds::=6 -q -y --no-remove install grub-pc'
p22
sg11
I5
sg12
I0
ssg1
(S'\x07\xda\n\x08\x0089\x00\x00\x00'
p23
tp24
Rp25
(dp26
g6
I0
sg7
I0
sg8
I0
sg9
I0
sg11
I14
sg12
I0
ssg1
(S'\x07\xdb\x01\x06\x10\x11*\x00\x00\x00'
p27
tp28
Rp29
(dp30
g6
I0
sg7
I0
sg8
I0
sg9
S'apt-get install dosbox'
p31
sg11
I5
sg12
I0
ssg1
(S'\x07\xdb\x01\x1b\x13\x07\x12\x00\x00\x00'
p32
tp33
Rp34
(dp35
g6
I0
sg7
I0
sg8
I0
sg9
S'apt-get install libboost-all-dev'
p36
sg11
I119
sg12
I0
ssg1
(S'\x07\xda\n\x01\x0c2\r\x00\x00\x00'
p37
tp38
Rp39
(dp40
g6
I0
sg7
I0
sg8
I0
sg9
S'apt-get -o APT::Status-Fd=4 -o APT::Keep-Fds::=5 -o APT::Keep-Fds::=6 -q -y --no-remove install eject'
p41
sg11
I1
sg12
I0
ssg1
(S'\x07\xda\n\x17\x127+\x00\x00\x00'
p42
tp43
Rp44
(dp45
g6
I0
sg7
I0
sg8
I0
sg9
S'apt-get install simutrans'
p46
sg11
I11
sg12
I0
ssg1
(S'\x07\xda\n\x07\x14"\x11\x00\x00\x00'
p47
tp48
Rp49
(dp50
g6
I0
sg7
I0
sg8
I0
sg9
S'apt-get install subversion'
p51
sg11
I5
sg12
I0
ssg1
(S'\x07\xda\x0c\x04\x0e9+\x00\x00\x00'
p52
tp53
Rp54
(dp55
g6
I0
sg7
I0
sg8
I0
sg9
S'apt-get install ntpdate'
p56
sg11
I3
sg12
I0
ssg1
(S'\x07\xdb\x01\x06\x10\x063\x00\x00\x00'
p57
tp58
Rp59
(dp60
g6
I0
sg7
I0
sg8
I0
sg9
S'apt-get install furiusisomount'
p61
sg11
I7
sg12
I0
ssg1
(S'\x07\xda\x0b\x10\x00:4\x00\x00\x00'
p62
tp63
Rp64
(dp65
g6
I186
sg7
I0
sg8
I0
sg9
S'apt-get upgrade'
p66
sg11
I0
sg12
I0
ssg1
(S'\x07\xdb\x01\x1b\x13\t%\x00\x00\x00'
p67
tp68
Rp69
(dp70
g6
I0
sg7
I0
sg8
I0
sg9
S'apt-get install libgmp3-dev'
p71
sg11
I3
sg12
I0
ssg1
(S'\x07\xda\n\x01\x0c1"\x00\x00\x00'
p72
tp73
Rp74
(dp75
g6
I0
sg7
I0
sg8
I0
sg9
S'apt-get -o APT::Status-Fd=4 -o APT::Keep-Fds::=5 -o APT::Keep-Fds::=6 -q -y --no-remove install initramfs-tools'
p76
sg11
I5
sg12
I0
ssg1
(S'\x07\xda\x0c\x05\t\x07\x19\x00\x00\x00'
p77
tp78
Rp79
(dp80
g6
I2
sg7
I0
sg8
I0
sg9
S'apt-get install playonlinux'
p81
sg11
I2
sg12
I0
ssg1
(S'\x07\xdb\x01\x08\x15\x00\n\x00\x00\x00'
p82
tp83
Rp84
(dp85
g6
I0
sg7
I1
sg8
I0
sg9
S'apt-get build-dep wine'
p86
sg11
I118
sg12
I0
ssg1
(S'\x07\xdb\x01\x1b\x13\x106\x00\x00\x00'
p87
tp88
Rp89
(dp90
g6
I0
sg7
I0
sg8
I0
sg9
S'apt-get install liblua5.1-sql-mysql-2'
p91
sg11
I1
sg12
I0
ssg1
(S'\x07\xdb\x01\x1b\x13\x11\x0f\x00\x00\x00'
p92
tp93
Rp94
(dp95
g6
I0
sg7
I0
sg8
I0
sg9
S'apt-get install liblua5.1-sql-mysql-dev'
p96
sg11
I1
sg12
I0
ssg1
(S'\x07\xda\x0c\x02\x01\x10\x06\x00\x00\x00'
p97
tp98
Rp99
(dp100
g6
I2
sg7
I0
sg8
I0
sg9
S'apt-get install mplayer'
p101
sg11
I2
sg12
I0
ssg1
(S"\x07\xda\n\x01\x0e\x06'\x00\x00\x00"
p102
tp103
Rp104
(dp105
g6
I0
sg7
I2
sg8
I0
sg9
S'apt-get install quodlibet-ext quodlibet-plugins'
p106
sg11
I16
sg12
I0
ssg1
(S'\x07\xda\n\x18\x0e2$\x00\x00\x00'
p107
tp108
Rp109
(dp110
g6
I0
sg7
I1
sg8
I0
sg9
S'apt-get remove simutrans-pak128.britain'
p111
sg11
I0
sg12
I0
ssg1
(S'\x07\xda\n\x08\x13$\x03\x00\x00\x00'
p112
tp113
Rp114
(dp115
g6
I0
sg7
I0
sg8
I0
sg9
S'apt-get install links'
p116
sg11
I1
sg12
I0
ssg1
(S'\x07\xdb\x01\x08\x173\x01\x00\x00\x00'
p117
tp118
Rp119
(dp120
g6
I0
sg7
I0
sg8
I0
sg9
S'apt-get install wine'
p121
sg11
I3
sg12
I0
ssg1
(S'\x07\xdb\x01\x08\x15\x07"\x00\x00\x00'
p122
tp123
Rp124
(dp125
g6
I0
sg7
I0
sg8
I0
sg9
S'apt-get install checkinstall'
p126
sg11
I1
sg12
I0
ssg1
(S'\x07\xda\n\x0b\x13\x16\t\x00\x00\x00'
p127
tp128
Rp129
(dp130
g6
I0
sg7
I0
sg8
I0
sg9
S'apt-get install pwgen'
p131
sg11
I1
sg12
I0
ssg1
(S'\x07\xda\n\x05\x13$/\x00\x00\x00'
p132
tp133
Rp134
(dp135
g6
I0
sg7
I0
sg8
I0
sg9
S'apt-get install mc'
p136
sg11
I1
sg12
I0
ssg1
(S'\x07\xda\x0c\x05\x0b\x04 \x00\x00\x00'
p137
tp138
Rp139
(dp140
g6
I0
sg7
I0
sg8
I0
sg9
S'apt-get install ristretto'
p141
sg11
I23
sg12
I0
ssg1
(S'\x07\xda\n\x07\x14#-\x00\x00\x00'
p142
tp143
Rp144
(dp145
g6
I0
sg7
I0
sg8
I0
sg9
S'apt-get install sun-java6-jdk'
p146
sg11
I7
sg12
I0
ssg1
(S'\x07\xda\n\x02\x058\x14\x00\x00\x00'
p147
tp148
Rp149
(dp150
g6
I0
sg7
I0
sg8
I0
sg9
S'apt-get install vlc'
p151
sg11
I33
sg12
I0
ssg1
(S'\x07\xda\n\x01\x0c1\x1b\x00\x00\x00'
p152
tp153
Rp154
(dp155
g6
I0
sg7
I0
sg8
I0
sg9
S'apt-get -o APT::Status-Fd=4 -o APT::Keep-Fds::=5 -o APT::Keep-Fds::=6 -q -y --no-remove install cryptsetup'
p156
sg11
I5
sg12
I0
ssg1
(S'\x07\xda\n\x07\x14\x1a\x1e\x00\x00\x00'
p157
tp158
Rp159
(dp160
g6
I0
sg7
I0
sg8
I0
sg9
S'apt-get install openvpn'
p161
sg11
I7
sg12
I0
ssg1
(S'\x07\xda\n\x19\x12*%\x00\x00\x00'
p162
tp163
Rp164
(dp165
g6
I0
sg7
I0
sg8
I0
sg9
S'apt-get install mediainfo'
p166
sg11
I5
sg12
I0
ssg1
(S'\x07\xda\x0b\x11\x16-\x14\x00\x00\x00'
p167
tp168
Rp169
(dp170
g6
I0
sg7
I0
sg8
I0
sg9
S'apt-get install libcuda1-dev'
p171
sg11
I3
sg12
I0
ssg1
(S'\x07\xda\n\x01\r00\x00\x00\x00'
p172
tp173
Rp174
(dp175
g6
I0
sg7
I0
sg8
I0
sg9
S'apt-get install yakuake'
p176
sg11
I173
sg12
I0
ssg1
(S'\x07\xda\x0b\x1e\x16,\x06\x00\x00\x00'
p177
tp178
Rp179
(dp180
g6
I10
sg7
I0
sg8
I0
sg9
S'apt-get upgrade'
p181
sg11
I0
sg12
I0
ssg1
(S'\x07\xda\n\x01\x0e*\x19\x00\x00\x00'
p182
tp183
Rp184
(dp185
g6
I0
sg7
I0
sg8
I0
sg9
S'apt-get install nvidia-glx-ia32'
p186
sg11
I5
sg12
I0
ssg1
(S'\x07\xda\x0c\x12\x00 \x1d\x00\x00\x00'
p187
tp188
Rp189
(dp190
g6
I0
sg7
I24
sg8
I0
sg9
S'apt-get remove mono-gac'
p191
sg11
I0
sg12
I0
ssg1
(S'\x07\xda\x0b\x06\x142\x02\x00\x00\x00'
p192
tp193
Rp194
(dp195
g6
I0
sg7
I0
sg8
I0
sg9
S'apt-get install screen'
p196
sg11
I1
sg12
I0
ssg1
(S'\x07\xda\x0c\x12\x01""\x00\x00\x00'
p197
tp198
Rp199
(dp200
g6
I102
sg7
I0
sg8
I0
sg9
S'apt-get upgrade'
p201
sg11
I0
sg12
I0
ssg1
(S'\x07\xda\n\x01\x0e\x0c\x16\x00\x00\x00'
p202
tp203
Rp204
(dp205
g6
I0
sg7
I0
sg8
I0
sg9
S'apt-get install nvidia-glx'
p206
sg11
I41
sg12
I0
ssg1
(S'\x07\xda\n\x18\x0e\x129\x00\x00\x00'
p207
tp208
Rp209
(dp210
g6
I0
sg7
I0
sg8
I0
sg9
S'apt-get install simutrans-pak128.britain'
p211
sg11
I1
sg12
I0
ssg1
(S'\x07\xda\n\x1b\x14!\x17\x00\x00\x00'
p212
tp213
Rp214
(dp215
g6
I0
sg7
I0
sg8
I0
sg9
S'apt-get install simutrans'
p216
sg11
I3
sg12
I0
ssg1
(S'\x07\xda\x0c\x1b\x16\x1e\x04\x00\x00\x00'
p217
tp218
Rp219
(dp220
g6
I122
sg7
I0
sg8
I0
sg9
S'apt-get upgrade'
p221
sg11
I0
sg12
I0
ssg1
(S'\x07\xda\n\x01\x0c2\x01\x00\x00\x00'
p222
tp223
Rp224
(dp225
g6
I0
sg7
I0
sg8
I0
sg9
S'apt-get -o APT::Status-Fd=4 -o APT::Keep-Fds::=5 -o APT::Keep-Fds::=6 -q -y --no-remove install pciutils'
p226
sg11
I3
sg12
I0
ssg1
(S'\x07\xda\n\x08\x008\x02\x00\x00\x00'
p227
tp228
Rp229
(dp230
g6
I0
sg7
I0
sg8
I0
sg9
S'apt-get install libzephyr4'
p231
sg11
I1
sg12
I0
ssg1
(S'\x07\xda\x0c\x1d\x17\x11\x13\x00\x00\x00'
p232
tp233
Rp234
(dp235
g6
I74
sg7
I0
sg8
I0
sg9
S'apt-get upgrade'
p236
sg11
I0
sg12
I0
ssg1
(S'\x07\xdb\x01\x14\x02\x11/\x00\x00\x00'
p237
tp238
Rp239
(dp240
g6
I0
sg7
I0
sg8
I0
sg9
S'apt-get install smplayer'
p241
sg11
I7
sg12
I0
ssg1
(S'\x07\xdb\x01\x19\x17\x08\x08\x00\x00\x00'
p242
tp243
Rp244
(dp245
g6
I16
sg7
I0
sg8
I0
sg9
S'apt-get dist-upgrade'
p246
sg11
I10
sg12
I0
ssg1
(S'\x07\xda\n\x18\x16\r\x1c\x00\x00\x00'
p247
tp248
Rp249
(dp250
g6
I0
sg7
I0
sg8
I0
sg9
S'apt-get install stopwatch'
p251
sg11
I5
sg12
I0
ssg1
(S"\x07\xda\n\x13\x13)'\x00\x00\x00"
p252
tp253
Rp254
(dp255
g6
I0
sg7
I0
sg8
I0
sg9
I0
sg11
I0
sg12
I0
ssg1
(S"\x07\xda\n\x06\x15\x0c'\x00\x00\x00"
p256
tp257
Rp258
(dp259
g6
I0
sg7
I0
sg8
I0
sg9
S'apt-get install fpc'
p260
sg11
I174
sg12
I0
ssg1
(S"\x07\xda\n\x01\x0c3'\x00\x00\x00"
p261
tp262
Rp263
(dp264
g6
I0
sg7
I0
sg8
I0
sg9
S'apt-get -o APT::Status-Fd=4 -o APT::Keep-Fds::=5 -o APT::Keep-Fds::=6 -q -y --no-remove install discover'
p265
sg11
I7
sg12
I0
ssg1
(S'\x07\xda\n\x01\x0e\x118\x00\x00\x00'
p266
tp267
Rp268
(dp269
g6
I0
sg7
I0
sg8
I0
sg9
S'apt-get install smplayer mplayer'
p270
sg11
I36
sg12
I0
ssg1
(S'\x07\xda\x0c\x12\x01!\x13\x00\x00\x00'
p271
tp272
Rp273
(dp274
g6
I0
sg7
I2
sg8
I0
sg9
S'apt-get remove boinc-client boinc-manager'
p275
sg11
I0
sg12
I0
ssg1
(S"\x07\xda\x0c\x06\x16'\x18\x00\x00\x00"
p276
tp277
Rp278
(dp279
g6
I6
sg7
I0
sg8
I0
sg9
I0
sg11
I0
sg12
I0
ssg1
(S'\x07\xda\n\x02\x05\x11\x1c\x00\x00\x00'
p280
tp281
Rp282
(dp283
g6
I0
sg7
I0
sg8
I0
sg9
S'apt-get install htop'
p284
sg11
I1
sg12
I0
ssg1
(S'\x07\xda\x0b\x02\x13+\x0c\x00\x00\x00'
p285
tp286
Rp287
(dp288
g6
I304
sg7
I0
sg8
I0
sg9
S'apt-get upgrade'
p289
sg11
I0
sg12
I0
ssg1
(S'\x07\xdb\x01\x0e\x15\x04\x1d\x00\x00\x00'
p290
tp291
Rp292
(dp293
g6
I16
sg7
I0
sg8
I0
sg9
S'apt-get upgrade'
p294
sg11
I0
sg12
I0
ssg1
(S'\x07\xda\n\n\n\x0c\x08\x00\x00\x00'
p295
tp296
Rp297
(dp298
g6
I186
sg7
I0
sg8
I0
sg9
S'apt-get upgrade'
p299
sg11
I0
sg12
I0
ssg1
(S'\x07\xda\n\x01\x155\x18\x00\x00\x00'
p300
tp301
Rp302
(dp303
g6
I0
sg7
I0
sg8
I0
sg9
S'apt-get install comix'
p304
sg11
I1
sg12
I0
ssg1
(S'\x07\xda\n\n\n\x05\r\x00\x00\x00'
p305
tp306
Rp307
(dp308
g6
I0
sg7
I1
sg8
I0
sg9
S'apt-get install busybox-static'
p309
sg11
I1
sg12
I0
ssg1
(S'\x07\xda\n\x01\x0c20\x00\x00\x00'
p310
tp311
Rp312
(dp313
g6
I0
sg7
I0
sg8
I0
sg9
I0
sg11
I0
sg12
I0
ssg1
(S'\x07\xda\x0c\x05\x0b\x0c%\x00\x00\x00'
p314
tp315
Rp316
(dp317
g6
I0
sg7
I1
sg8
I0
sg9
S'apt-get remove ristretto'
p318
sg11
I0
sg12
I0
ssg1
(S"\x07\xda\n\x02\x01'\x02\x00\x00\x00"
p319
tp320
Rp321
(dp322
g6
I0
sg7
I0
sg8
I0
sg9
S'apt-get install strace'
p323
sg11
I1
sg12
I0
ssg1
(S'\x07\xda\n\x01\x0c4(\x00\x00\x00'
p324
tp325
Rp326
(dp327
g6
I0
sg7
I0
sg8
I0
sg9
S'apt-get -o APT::Status-Fd=4 -o APT::Keep-Fds::=5 -o APT::Keep-Fds::=6 -q -y --no-remove -o APT::Install-Recommends=false install popularity-contest'
p328
sg11
I1
sg12
I0
ssg1
(S'\x07\xdb\x01\x1f\x12\x0f#\x00\x00\x00'
p329
tp330
Rp331
(dp332
g6
I0
sg7
I0
sg8
I0
sg9
S'apt-get install playonlinux'
p333
sg11
I1
sg12
I0
ssg1
(S'\x07\xda\n\x13\x13\x1f4\x00\x00\x00'
p334
tp335
Rp336
(dp337
g6
I52
sg7
I0
sg8
I0
sg9
I0
sg11
I0
sg12
I0
ssg1
(S'\x07\xda\n\x08\x16\x12\x00\x00\x00\x00'
p338
tp339
Rp340
(dp341
g6
I0
sg7
I0
sg8
I0
sg9
S'apt-get install normalize-audio'
p342
sg11
I5
sg12
I0
ssg1
(S'\x07\xda\x0c\x02\x01\x11$\x00\x00\x00'
p343
tp344
Rp345
(dp346
g6
I30
sg7
I7
sg8
I0
sg9
S'apt-get dist-upgrade'
p347
sg11
I28
sg12
I0
ssg1
(S'\x07\xdb\x01\x08\x15\x03\x0f\x00\x00\x00'
p348
tp349
Rp350
(dp351
g6
I0
sg7
I0
sg8
I0
sg9
S'apt-get install autoconf'
p352
sg11
I3
sg12
I0
ssg1
(S'\x07\xda\x0c\x0c\x15\x1f\x13\x00\x00\x00'
p353
tp354
Rp355
(dp356
g6
I0
sg7
I0
sg8
I0
sg9
S'apt-get install iotop'
p357
sg11
I1
sg12
I0
ssg1
(S'\x07\xda\n\x01\x15:)\x00\x00\x00'
p358
tp359
Rp360
(dp361
g6
I8
sg7
I0
sg8
I0
sg9
I0
sg11
I4
sg12
I0
ssg1
(S'\x07\xda\n\x01\r\x01\x15\x00\x00\x00'
p362
tp363
Rp364
(dp365
g6
I0
sg7
I0
sg8
I0
sg9
I0
sg11
I2205
sg12
I0
ssg1
(S'\x07\xdb\x01\x19\x16\t\x1b\x00\x00\x00'
p366
tp367
Rp368
(dp369
g6
I110
sg7
I0
sg8
I0
sg9
S'apt-get upgrade'
p370
sg11
I0
sg12
I0
ssg1
(S'\x07\xda\n\x0c\x16\x1b;\x00\x00\x00'
p371
tp372
Rp373
(dp374
g6
I0
sg7
I0
sg8
I0
sg9
S'apt-get install maven2'
p375
sg11
I203
sg12
I0
ssg1
(S'\x07\xdb\x01\x0c\x15\x12-\x00\x00\x00'
p376
tp377
Rp378
(dp379
g6
I26
sg7
I0
sg8
I0
sg9
I0
sg11
I0
sg12
I0
ssg1
(S'\x07\xda\x0c\x02\x01\x0f!\x00\x00\x00'
p380
tp381
Rp382
(dp383
g6
I6
sg7
I0
sg8
I0
sg9
S'apt-get upgrade'
p384
sg11
I0
sg12
I0
ssg1
(S'\x07\xda\x0b\x1d\x14-(\x00\x00\x00'
p385
tp386
Rp387
(dp388
g6
I102
sg7
I0
sg8
I0
sg9
S'apt-get upgrade'
p389
sg11
I0
sg12
I0
ssg1
(S'\x07\xda\x0b\x06\x14::\x00\x00\x00'
p390
tp391
Rp392
(dp393
g6
I0
sg7
I0
sg8
I0
sg9
S'apt-get install python-4suite-xml python-qt4'
p394
sg11
I10
sg12
I0
ssg1
(S'\x07\xda\x0c\x11\x178\x0f\x00\x00\x00'
p395
tp396
Rp397
(dp398
g6
I2
sg7
I0
sg8
I0
sg9
S'apt-get install boinc-app-seti'
p399
sg11
I9
sg12
I0
ssg1
(S'\x07\xdb\x01\x06\x10\x0c8\x00\x00\x00'
p400
tp401
Rp402
(dp403
g6
I0
sg7
I0
sg8
I0
sg9
S'apt-get install acetoneiso'
p404
sg11
I13
sg12
I0
ssg1
(S'\x07\xda\n\x06\x16\x14\x12\x00\x00\x00'
p405
tp406
Rp407
(dp408
g6
I0
sg7
I0
sg8
I0
sg9
S'apt-get install valgrind'
p409
sg11
I7
sg12
I0
ssg1
(S'\x07\xdb\x01\x1d\r8\x19\x00\x00\x00'
p410
tp411
Rp412
(dp413
g6
I0
sg7
I0
sg8
I0
sg9
S'apt-get install chromium-browser'
p414
sg11
I5
sg12
I0
ssg1
(S'\x07\xdb\x01\x08\x14;\x0e\x00\x00\x00'
p415
tp416
Rp417
(dp418
g6
I0
sg7
I2
sg8
I0
sg9
S'apt-get remove wine'
p419
sg11
I0
sg12
I0
ssg1
(S'\x07\xda\x0c\x05\x0b\r3\x00\x00\x00'
p420
tp421
Rp422
(dp423
g6
I0
sg7
I0
sg8
I0
sg9
S'apt-get install qiv'
p424
sg11
I3
sg12
I0
ssg1
(S'\x07\xda\x0b\x19\x14%4\x00\x00\x00'
p425
tp426
Rp427
(dp428
g6
I0
sg7
I0
sg8
I0
sg9
S'apt-get install python-pyquery'
p429
sg11
I5
sg12
I0
ssg1
(S'\x07\xda\n\x07\x14\x13\x18\x00\x00\x00'
p430
tp431
Rp432
(dp433
g6
I0
sg7
I0
sg8
I0
sg9
S'apt-get install ia32-libs ia32-libs-gtk libqt4-core libqt4-gui'
p434
sg11
I6
sg12
I0
ssg1
(S'\x07\xda\n\x01\x0e\x025\x00\x00\x00'
p435
tp436
Rp437
(dp438
g6
I64
sg7
I0
sg8
I0
sg9
S'apt-get upgrade'
p439
sg11
I0
sg12
I0
ssg1
(S'\x07\xdb\x01\x1b\x13\x0b\x17\x00\x00\x00'
p440
tp441
Rp442
(dp443
g6
I0
sg7
I0
sg8
I0
sg9
S'apt-get install libgmp3-dev libsqlite3-dev'
p444
sg11
I1
sg12
I0
ssg1
(S'\x07\xdb\x01\x1b\x13\x06\x0e\x00\x00\x00'
p445
tp446
Rp447
(dp448
g6
I0
sg7
I0
sg8
I0
sg9
S'apt-get install lua5.1'
p449
sg11
I1
sg12
I0
ssg1
(S'\x07\xda\n\x13\x17&8\x00\x00\x00'
p450
tp451
Rp452
(dp453
g6
I128
sg7
I0
sg8
I0
sg9
S'apt-get upgrade'
p454
sg11
I0
sg12
I0
ssg1
(S'\x07\xda\n\x01\x0c2\x07\x00\x00\x00'
p455
tp456
Rp457
(dp458
g6
I0
sg7
I0
sg8
I0
sg9
S'apt-get -o APT::Status-Fd=4 -o APT::Keep-Fds::=5 -o APT::Keep-Fds::=6 -q -y --no-remove install acpi'
p459
sg11
I1
sg12
I0
ssg1
(S'\x07\xda\n\x01\x0c1\x11\x00\x00\x00'
p460
tp461
Rp462
(dp463
g6
I0
sg7
I0
sg8
I0
sg9
S'apt-get -o APT::Status-Fd=4 -o APT::Keep-Fds::=5 -o APT::Keep-Fds::=6 -q -y --no-remove install console-setup kbd'
p464
sg11
I8
sg12
I0
ssg1
(S'\x07\xda\n\x01\x111\n\x00\x00\x00'
p465
tp466
Rp467
(dp468
g6
I0
sg7
I0
sg8
I0
sg9
S'apt-get -o APT::Status-Fd=4 -o APT::Keep-Fds::=5 -o APT::Keep-Fds::=6 -q -y --no-remove install locales'
p469
sg11
I1
sg12
I0
ssg1
(S'\x07\xda\x0b\x11\x16+6\x00\x00\x00'
p470
tp471
Rp472
(dp473
g6
I0
sg7
I0
sg8
I0
sg9
S'apt-get install libcuda1-ia32'
p474
sg11
I1
sg12
I0
ssg1
(S'\x07\xda\x0b\x19\x15\x052\x00\x00\x00'
p475
tp476
Rp477
(dp478
g6
I52
sg7
I0
sg8
I0
sg9
S'apt-get upgrade'
p479
sg11
I0
sg12
I0
ssg1
(S'\x07\xdb\x01\x15\x11*1\x00\x00\x00'
p480
tp481
Rp482
(dp483
g6
I0
sg7
I0
sg8
I0
sg9
S'apt-get install smart-notifier'
p484
sg11
I3
sg12
I0
ssg1
(S'\x07\xda\x0c\x12\x00\t\x19\x00\x00\x00'
p485
tp486
Rp487
(dp488
g6
I0
sg7
I0
sg8
I0
sg9
S'apt-get install boinc-manager'
p489
sg11
I1
sg12
I0
ssg1
(S'\x07\xda\n\x19\x14*-\x00\x00\x00'
p490
tp491
Rp492
(dp493
g6
I0
sg7
I0
sg8
I0
sg9
S'apt-get install playonlinux'
p494
sg11
I9
sg12
I0
ssg1
(S'\x07\xda\n\x1b\x14 ;\x00\x00\x00'
p495
tp496
Rp497
(dp498
g6
I0
sg7
I1
sg8
I0
sg9
S'apt-get remove simutrans'
p499
sg11
I0
sg12
I0
ssg1
(S'\x07\xdb\x01\x06\x12\x167\x00\x00\x00'
p500
tp501
Rp502
(dp503
g6
I0
sg7
I0
sg8
I0
sg9
S'apt-get install wvdial'
p504
sg11
I7
sg12
I0
ssg1
(S'\x07\xda\n\x1b\x14!\x0f\x00\x00\x00'
p505
tp506
Rp507
(dp508
g6
I0
sg7
I1
sg8
I0
sg9
S'apt-get remove simutrans-pak64'
p509
sg11
I0
sg12
I0
ssg1
(S'\x07\xda\x0b\x10\x15#$\x00\x00\x00'
p510
tp511
Rp512
(dp513
g6
I0
sg7
I0
sg8
I0
sg9
S'apt-get install chkrootkit'
p514
sg11
I1
sg12
I0
ssg1
(S'\x07\xdb\x01\x1b\x17\x07\x02\x00\x00\x00'
p515
tp516
Rp517
(dp518
g6
I12
sg7
I0
sg8
I0
sg9
S'apt-get upgrade'
p519
sg11
I0
sg12
I0
ssg1
(S'\x07\xdb\x01\x14\x02\x104\x00\x00\x00'
p520
tp521
Rp522
(dp523
g6
I0
sg7
I4
sg8
I0
sg9
S'apt-get remove mplayer'
p524
sg11
I0
sg12
I0
ssg1
(S'\x07\xdb\x01\t\x109+\x00\x00\x00'
p525
tp526
Rp527
(dp528
g6
I182
sg7
I0
sg8
I0
sg9
S'apt-get upgrade'
p529
sg11
I0
sg12
I0
ssg1
(S'\x07\xda\x0c\x08\x13\x152\x00\x00\x00'
p530
tp531
Rp532
(dp533
g6
I0
sg7
I0
sg8
I0
sg9
S'apt-get install gnome-phone-manager'
p534
sg11
I13
sg12
I0
ssg1
(S'\x07\xda\n\x01\x0e\x07\x0f\x00\x00\x00'
p535
tp536
Rp537
(dp538
g6
I0
sg7
I0
sg8
I0
sg9
S'apt-get install debian-multimedia-keyring'
p539
sg11
I1
sg12
I0
ssg1
(S'\x07\xda\n\x06\x00\t6\x00\x00\x00'
p540
tp541
Rp542
(dp543
g6
I0
sg7
I0
sg8
I0
sg9
S'apt-get install flashplayer-mozilla'
p544
sg11
I21
sg12
I0
ssg1
(S'\x07\xda\n\x05\x15\x1e\x06\x00\x00\x00'
p545
tp546
Rp547
(dp548
g6
I88
sg7
I0
sg8
I0
sg9
S'apt-get upgrade'
p549
sg11
I0
sg12
I0
ssg1
(S'\x07\xda\n\x01\x0c2\t\x00\x00\x00'
p550
tp551
Rp552
(dp553
g6
I0
sg7
I0
sg8
I0
sg9
S'apt-get -o APT::Status-Fd=4 -o APT::Keep-Fds::=5 -o APT::Keep-Fds::=6 -q -y --no-remove install acpid'
p554
sg11
I1
sg12
I0
ssg1
(S'\x07\xda\n\x01\x0e\x08\x10\x00\x00\x00'
p555
tp556
Rp557
(dp558
g6
I0
sg7
I0
sg8
I0
sg9
S'apt-get install wine'
p559
sg11
I23
sg12
I0
ssg1
(S'\x07\xdb\x01\x15\x11\t,\x00\x00\x00'
p560
tp561
Rp562
(dp563
g6
I0
sg7
I0
sg8
I0
sg9
S'apt-get install p7zip'
p564
sg11
I1
sg12
I0
ssg1
(S'\x07\xda\x0c\x05\x11(#\x00\x00\x00'
p565
tp566
Rp567
(dp568
g6
I0
sg7
I0
sg8
I0
sg9
S'apt-get install mdf2iso'
p569
sg11
I1
sg12
I0
ssg1
(S'\x07\xda\n\x02\x02\x01/\x00\x00\x00'
p570
tp571
Rp572
(dp573
g6
I0
sg7
I0
sg8
I0
sg9
S'apt-get install unrar'
p574
sg11
I1
sg12
I0
ssg1
(S'\x07\xda\n\x01\x0c1/\x00\x00\x00'
p575
tp576
Rp577
(dp578
g6
I0
sg7
I0
sg8
I0
sg9
S'apt-get -o APT::Status-Fd=4 -o APT::Keep-Fds::=5 -o APT::Keep-Fds::=6 -q -y --no-remove install linux-image-2.6-amd64'
p579
sg11
I7
sg12
I0
ssg1
(S'\x07\xda\x0c\x05\x0b\x0e!\x00\x00\x00'
p580
tp581
Rp582
(dp583
g6
I0
sg7
I0
sg8
I0
sg9
S'apt-get install mirage'
p584
sg11
I1
sg12
I0
ssg1
(S'\x07\xda\x0c\x12\x01 6\x00\x00\x00'
p585
tp586
Rp587
(dp588
g6
I0
sg7
I1
sg8
I0
sg9
S'apt-get remove boinc-app-seti'
p589
sg11
I0
sg12
I0
ssg1
(S'\x07\xda\x0b\x17\x14#*\x00\x00\x00'
p590
tp591
Rp592
(dp593
g6
I210
sg7
I0
sg8
I0
sg9
S'apt-get upgrade'
p594
sg11
I0
sg12
I0
ssg1
(S'\x07\xda\n\x02\x01" \x00\x00\x00'
p595
tp596
Rp597
(dp598
g6
I0
sg7
I0
sg8
I0
sg9
S'apt-get install cabextract'
p599
sg11
I1
sg12
I0
ssg1
(S'\x07\xdb\x01\x1b\x13\x08/\x00\x00\x00'
p600
tp601
Rp602
(dp603
g6
I0
sg7
I0
sg8
I0
sg9
S'apt-get install lua5.1-dev'
p604
sg11
I5
sg12
I0
ssg1
(S'\x07\xda\n\x0c\x16+:\x00\x00\x00'
p605
tp606
Rp607
(dp608
g6
I0
sg7
I0
sg8
I0
sg9
S'apt-get install eclipse'
p609
sg11
I31
sg12
I0
ssg1
(S'\x07\xda\x0c\x08\x13\x0e \x00\x00\x00'
p610
tp611
Rp612
(dp613
g6
I0
sg7
I0
sg8
I0
sg9
S'apt-get install kmobiletools'
p614
sg11
I15
sg12
I0
ssg1
(S"\x07\xda\n\x02\x054'\x00\x00\x00"
p615
tp616
Rp617
(dp618
g6
I0
sg7
I0
sg8
I0
sg9
S'apt-get install gaupol'
p619
sg11
I7
sg12
I0
ssg1
(S'\x07\xda\n\x01\x0c2\x0b\x00\x00\x00'
p620
tp621
Rp622
(dp623
g6
I0
sg7
I0
sg8
I0
sg9
S'apt-get -o APT::Status-Fd=4 -o APT::Keep-Fds::=5 -o APT::Keep-Fds::=6 -q -y --no-remove install acpi-support-base'
p624
sg11
I1
sg12
I0
ssg1
(S'\x07\xda\x0b\x1d\x171)\x00\x00\x00'
p625
tp626
Rp627
(dp628
g6
I0
sg7
I0
sg8
I0
sg9
S'apt-get install bchunk'
p629
sg11
I1
sg12
I0
ssg1
(S'\x07\xda\n\x08\x00\x1c\x0c\x00\x00\x00'
p630
tp631
Rp632
(dp633
g6
I32
sg7
I0
sg8
I0
sg9
S'apt-get upgrade'
p634
sg11
I0
sg12
I0
ssg1
(S'\x07\xda\x0b\x17\x16!\x1d\x00\x00\x00'
p635
tp636
Rp637
(dp638
g6
I0
sg7
I0
sg8
I0
sg9
S'apt-get install sun-java6-source'
p639
sg11
I1
sg12
I0
ssg1
(S'\x07\xda\n\x02\x05,\x06\x00\x00\x00'
p640
tp641
Rp642
(dp643
g6
I0
sg7
I0
sg8
I0
sg9
S'apt-get install qnapi'
p644
sg11
I1
sg12
I0
ssg1
(S'\x07\xda\x0b\x1c\x15%\x19\x00\x00\x00'
p645
tp646
Rp647
(dp648
g6
I0
sg7
I0
sg8
I0
sg9
S'apt-get install wicd'
p649
sg11
I13
sg12
I0
ssg1
(S'\x07\xdb\x01\x1e\x12\x020\x00\x00\x00'
p650
tp651
Rp652
(dp653
g6
I100
sg7
I0
sg8
I0
sg9
S'apt-get upgrade'
p654
sg11
I0
sg12
I0
ssg1
(S'\x07\xda\x0c\x08\x13\x0b1\x00\x00\x00'
p655
tp656
Rp657
(dp658
g6
I88
sg7
I0
sg8
I0
sg9
S'apt-get upgrade'
p659
sg11
I0
sg12
I0
ssg1
(S'\x07\xda\n\x01\x0c2\x05\x00\x00\x00'
p660
tp661
Rp662
(dp663
g6
I0
sg7
I0
sg8
I0
sg9
S'apt-get -o APT::Status-Fd=4 -o APT::Keep-Fds::=5 -o APT::Keep-Fds::=6 -q -y --no-remove install usbutils'
p664
sg11
I1
sg12
I0
ssg1
(S'\x07\xda\n\x01\x0c4 \x00\x00\x00'
p665
tp666
Rp667
(dp668
g6
I0
sg7
I0
sg8
I0
sg9
S'apt-get -o APT::Status-Fd=4 -o APT::Keep-Fds::=5 -o APT::Keep-Fds::=6 -q -y --no-remove -o APT::Install-Recommends=false install installation-report'
p669
sg11
I1
sg12
I0
ssg1
(S'\x07\xda\x0c\x05\x076\x1a\x00\x00\x00'
p670
tp671
Rp672
(dp673
g6
I20
sg7
I0
sg8
I0
sg9
S'apt-get upgrade'
p674
sg11
I0
sg12
I0
ssg1
(S'\x07\xda\n\x01\x0c3$\x00\x00\x00'
p675
tp676
Rp677
(dp678
g6
I0
sg7
I0
sg8
I0
sg9
S'apt-get -o APT::Status-Fd=4 -o APT::Keep-Fds::=5 -o APT::Keep-Fds::=6 -q -y --no-remove install laptop-detect'
p679
sg11
I1
sg12
I0
ssg1
(S'\x07\xdb\x01\x15\x11\x12\t\x00\x00\x00'
p680
tp681
Rp682
(dp683
g6
I0
sg7
I0
sg8
I0
sg9
S'apt-get install python3'
p684
sg11
I7
sg12
I0
ssg1
(S'\x07\xda\n\x01\x0c1\x1f\x00\x00\x00'
p685
tp686
Rp687
(dp688
g6
I0
sg7
I0
sg8
I0
sg9
S'apt-get -o APT::Status-Fd=4 -o APT::Keep-Fds::=5 -o APT::Keep-Fds::=6 -q -y --no-remove install busybox'
p689
sg11
I1
sg12
I0
ss.